ccopy_reg
_reconstructor
p0
(cdigits.dataset.generic.job
GenericDatasetJob
p1
c__builtin__
object
p2
Ntp3
Rp4
(dp5
S'_notes'
p6
NsS'username'
p7
Vwills
p8
sS'tasks'
p9
(lp10
g0
(cdigits.dataset.tasks.create_generic_db
CreateGenericDbTask
p11
g2
Ntp12
Rp13
(dp14
S'feature_shape'
p15
NsS'pickver_task_create_generic_db'
p16
I1
sS'label_shape'
p17
NsS'job'
p18
g4
sS'entry_count'
p19
I0
sS'create_db_log_file'
p20
S'create_train_db_db.log'
p21
sS'dbs'
p22
(dp23
S'labels'
p24
NsS'features'
p25
NssS'pickver_task'
p26
I1
sS'backend'
p27
Vlmdb
p28
sS'exception'
p29
NsS'current_resources'
p30
NsS'job_id'
p31
S'20180117-083841-a8d1'
p32
sS'traceback'
p33
NsS'mean_file'
p34
NsS'job_dir'
p35
S'/home/wills/Projects/digits-ssd/digits/jobs/20180117-083841-a8d1'
p36
sS'parents'
p37
NsS'progress'
p38
F1.0
sS'stage'
p39
S'train_db'
p40
sS'status_history'
p41
(lp42
((idigits.status
Status
p43
S'I'
p45
bF1516207121.110961
tp46
a((idigits.status
Status
p47
S'R'
p48
bF1516207122.869523
tp49
a((idigits.status
Status
p50
S'D'
p51
bF1516207124.600235
tp52
asbasS'pickver_job_dataset_extension'
p53
I1
sS'batch_size'
p54
I32
sS'force_same_shape'
p55
I1
sS'form_data'
p56
(dp57
S'form.dsopts_num_threads.data'
p58
I4
sS'form.server_dataset_folder.data'
p59
Vdf
p60
sS'form.dsopts_force_same_shape.data'
p61
I1
sS'form.dsopts_batch_size.data'
p62
I32
sS'form.dataset_server_port.data'
p63
V2134
p64
sS'form.dsopts_backend.data'
p65
g28
sS'form.group_name.data'
p66
Vcloud_training
p67
sS'form.dsopts_label_encoding.data'
p68
Vnone
p69
sS'form.dsopts_feature_encoding.data'
p70
Vpng
p71
sS'form.dataset_server_ip.data'
p72
Vlocalhost
p73
sS'form.dataset_name.data'
p74
Vcloud_dataset
p75
ssS'pickver_job'
p76
I2
sg27
g28
sS'num_threads'
p77
I4
sg29
NsS'group'
p78
g67
sS'feature_encoding'
p79
g71
sS'persistent'
p80
I01
sS'_name'
p81
g75
sS'extension_userdata'
p82
(dp83
S'dataset_server_ip'
p84
g73
sS'dataset_server_port'
p85
g64
sS'server_dataset_folder'
p86
g60
ssS'extension_id'
p87
VCloudTraining
p88
sS'label_encoding'
p89
g69
sg38
F1.0
sS'_id'
p90
S'20180117-083841-a8d1'
p91
sS'pickver_job_dataset'
p92
I1
sg41
(lp93
((idigits.status
Status
p94
g45
bF1516207121.00879
tp95
a((idigits.status
Status
p96
g48
bF1516207122.476465
tp97
a((idigits.status
Status
p98
g51
bF1516207124.615545
tp99
asb.