ccopy_reg
_reconstructor
p0
(cdigits.model.images.generic.job
GenericImageModelJob
p1
c__builtin__
object
p2
Ntp3
Rp4
(dp5
S'username'
p6
Vwills
p7
sS'_notes'
p8
NsS'tasks'
p9
(lp10
g0
(cdigits.model.tasks.distrib_caffe_train
DistributedTrainTask
p11
g2
Ntp12
Rp13
(dp14
S'shuffle'
p15
I01
sS'train_outputs'
p16
ccollections
OrderedDict
p17
((lp18
tp19
Rp20
sS'loaded_snapshot_epoch'
p21
NsS'pretrained_model'
p22
NsS'deploy_file'
p23
S'deploy.prototxt'
p24
sS'gpu_count'
p25
I1
sS'rms_decay'
p26
F0.99
sS'job_id'
p27
S'20180108-223459-011d'
p28
sS'max_iter_num'
p29
I500
sS'caffe_flavor'
p30
S'BVLC'
p31
sS'parents'
p32
NsS'train_server_ip'
p33
V118.201.243.15
p34
sS'receiving_train_output'
p35
I00
sS'current_epoch'
p36
I0
sS'random_seed'
p37
NsS'progress'
p38
I0
sS'current_resources'
p39
NsS'train_server_port'
p40
V955
p41
sS'exception'
p42
csocket
error
p43
(I111
S'Connection refused'
p44
tp45
Rp46
sS'selected_gpus'
p47
NsS'solver'
p48
ccaffe_pb2
SolverParameter
p49
(tRp50
(dp51
S'serialized'
p52
S'8\xf4\x03p\x01z\x08snapshot'
p53
sbsS'framework_id'
p54
S'caffe'
p55
sS'last_train_update'
p56
NsS'train_val_file'
p57
S'train_val.prototxt'
p58
sS'caffe_version'
p59
S'1.0.0-rc3'
p60
sS'status_history'
p61
(lp62
((idigits.status
Status
p63
S'I'
p65
bF1515479699.604875
tp66
a((idigits.status
Status
p67
S'R'
p68
bF1515479701.001187
tp69
a((idigits.status
Status
p70
S'E'
p71
bF1515479722.010217
tp72
asS'snapshot_interval'
p73
F1.0
sS'val_outputs'
p74
g17
((lp75
tp76
Rp77
sS'current_iteration'
p78
I0
sS'loaded_snapshot_file'
p79
NsS'traces_interval'
p80
I0
sS'train_epochs'
p81
I500
sS'data_dir'
p82
S'/home/wills/Projects/digits/digits/jobs/20180108-223220-4081'
p83
sS'network'
p84
ccaffe_pb2
NetParameter
p85
(tRp86
(dp87
g52
S'\n\x1dVGG_VOC0712_SSD_300x300_train\xa2\x06\x89\x04\n\x04data\x12\rAnnotatedData"\x04data"\x05labelB\x02\x08\x00\xa2\x06s\x10\x01-\x00\x00\xd0B-\x00\x00\xeaB-\x00\x00\xf6BB\x17\r\x00\x00\x80?\x10\x01\x18\xac\x02 \xac\x028\x018\x028\x038\x048\x05R\x02\x08\x00j7\r\x00\x00\x00?\x15\x00\x00\x00B\x1d\x00\x00\x00?%\x00\x00\x00?-\x00\x00\xc0?5\x00\x00\x00?=\x00\x00\x90AE\x00\x00\x00?M\x00\x00\x00?U\x00\x00\xc0?]\x00\x00\x00\x00r\n\r\x00\x00\x00?\x15\x00\x00\x80@\xda\x06K\nE/home/wills/Projects/caffe-ssd/examples/VOC0712/VOC0712_trainval_lmdb  @\x01\xc2\x0c\x9b\x02\n\x04 \x01(\x01\n!\x12\x14\r\x9a\x99\x99>\x15\x00\x00\x80?\x1d\x00\x00\x00?%\x00\x00\x00@\x1a\x05\r\xcd\xcc\xcc= \x01(2\n!\x12\x14\r\x9a\x99\x99>\x15\x00\x00\x80?\x1d\x00\x00\x00?%\x00\x00\x00@\x1a\x05\r\x9a\x99\x99> \x01(2\n!\x12\x14\r\x9a\x99\x99>\x15\x00\x00\x80?\x1d\x00\x00\x00?%\x00\x00\x00@\x1a\x05\r\x00\x00\x00? \x01(2\n!\x12\x14\r\x9a\x99\x99>\x15\x00\x00\x80?\x1d\x00\x00\x00?%\x00\x00\x00@\x1a\x05\r333? \x01(2\n!\x12\x14\r\x9a\x99\x99>\x15\x00\x00\x80?\x1d\x00\x00\x00?%\x00\x00\x00@\x1a\x05\rfff? \x01(2\n!\x12\x14\r\x9a\x99\x99>\x15\x00\x00\x80?\x1d\x00\x00\x00?%\x00\x00\x00@\x1a\x05\x15\x00\x00\x80? \x01(2\x12A/home/wills/Projects/caffe-ssd/data/VOC0712/labelmap_voc.prototxt\xa2\x06a\n\x07conv1_1\x12\x0bConvolution\x1a\x04data"\x07conv1_12\n\x1d\x00\x00\x80?%\x00\x00\x80?2\n\x1d\x00\x00\x00@%\x00\x00\x00\x00\xd2\x06!\x08@\x18\x01 \x03:\x08\n\x06xavierB\x0f\n\x08constant\x15\x00\x00\x00\x00\xa2\x06!\n\x07relu1_1\x12\x04ReLU\x1a\x07conv1_1"\x07conv1_1\xa2\x06d\n\x07conv1_2\x12\x0bConvolution\x1a\x07conv1_1"\x07conv1_22\n\x1d\x00\x00\x80?%\x00\x00\x80?2\n\x1d\x00\x00\x00@%\x00\x00\x00\x00\xd2\x06!\x08@\x18\x01 \x03:\x08\n\x06xavierB\x0f\n\x08constant\x15\x00\x00\x00\x00\xa2\x06!\n\x07relu1_2\x12\x04ReLU\x1a\x07conv1_2"\x07conv1_2\xa2\x06)\n\x05pool1\x12\x07Pooling\x1a\x07conv1_2"\x05pool1\xca\x07\x06\x08\x00\x10\x02\x18\x02\xa2\x06c\n\x07conv2_1\x12\x0bConvolution\x1a\x05pool1"\x07conv2_12\n\x1d\x00\x00\x80?%\x00\x00\x80?2\n\x1d\x00\x00\x00@%\x00\x00\x00\x00\xd2\x06"\x08\x80\x01\x18\x01 \x03:\x08\n\x06xavierB\x0f\n\x08constant\x15\x00\x00\x00\x00\xa2\x06!\n\x07relu2_1\x12\x04ReLU\x1a\x07conv2_1"\x07conv2_1\xa2\x06e\n\x07conv2_2\x12\x0bConvolution\x1a\x07conv2_1"\x07conv2_22\n\x1d\x00\x00\x80?%\x00\x00\x80?2\n\x1d\x00\x00\x00@%\x00\x00\x00\x00\xd2\x06"\x08\x80\x01\x18\x01 \x03:\x08\n\x06xavierB\x0f\n\x08constant\x15\x00\x00\x00\x00\xa2\x06!\n\x07relu2_2\x12\x04ReLU\x1a\x07conv2_2"\x07conv2_2\xa2\x06)\n\x05pool2\x12\x07Pooling\x1a\x07conv2_2"\x05pool2\xca\x07\x06\x08\x00\x10\x02\x18\x02\xa2\x06c\n\x07conv3_1\x12\x0bConvolution\x1a\x05pool2"\x07conv3_12\n\x1d\x00\x00\x80?%\x00\x00\x80?2\n\x1d\x00\x00\x00@%\x00\x00\x00\x00\xd2\x06"\x08\x80\x02\x18\x01 \x03:\x08\n\x06xavierB\x0f\n\x08constant\x15\x00\x00\x00\x00\xa2\x06!\n\x07relu3_1\x12\x04ReLU\x1a\x07conv3_1"\x07conv3_1\xa2\x06e\n\x07conv3_2\x12\x0bConvolution\x1a\x07conv3_1"\x07conv3_22\n\x1d\x00\x00\x80?%\x00\x00\x80?2\n\x1d\x00\x00\x00@%\x00\x00\x00\x00\xd2\x06"\x08\x80\x02\x18\x01 \x03:\x08\n\x06xavierB\x0f\n\x08constant\x15\x00\x00\x00\x00\xa2\x06!\n\x07relu3_2\x12\x04ReLU\x1a\x07conv3_2"\x07conv3_2\xa2\x06e\n\x07conv3_3\x12\x0bConvolution\x1a\x07conv3_2"\x07conv3_32\n\x1d\x00\x00\x80?%\x00\x00\x80?2\n\x1d\x00\x00\x00@%\x00\x00\x00\x00\xd2\x06"\x08\x80\x02\x18\x01 \x03:\x08\n\x06xavierB\x0f\n\x08constant\x15\x00\x00\x00\x00\xa2\x06!\n\x07relu3_3\x12\x04ReLU\x1a\x07conv3_3"\x07conv3_3\xa2\x06)\n\x05pool3\x12\x07Pooling\x1a\x07conv3_3"\x05pool3\xca\x07\x06\x08\x00\x10\x02\x18\x02\xa2\x06c\n\x07conv4_1\x12\x0bConvolution\x1a\x05pool3"\x07conv4_12\n\x1d\x00\x00\x80?%\x00\x00\x80?2\n\x1d\x00\x00\x00@%\x00\x00\x00\x00\xd2\x06"\x08\x80\x04\x18\x01 \x03:\x08\n\x06xavierB\x0f\n\x08constant\x15\x00\x00\x00\x00\xa2\x06!\n\x07relu4_1\x12\x04ReLU\x1a\x07conv4_1"\x07conv4_1\xa2\x06e\n\x07conv4_2\x12\x0bConvolution\x1a\x07conv4_1"\x07conv4_22\n\x1d\x00\x00\x80?%\x00\x00\x80?2\n\x1d\x00\x00\x00@%\x00\x00\x00\x00\xd2\x06"\x08\x80\x04\x18\x01 \x03:\x08\n\x06xavierB\x0f\n\x08constant\x15\x00\x00\x00\x00\xa2\x06!\n\x07relu4_2\x12\x04ReLU\x1a\x07conv4_2"\x07conv4_2\xa2\x06e\n\x07conv4_3\x12\x0bConvolution\x1a\x07conv4_2"\x07conv4_32\n\x1d\x00\x00\x80?%\x00\x00\x80?2\n\x1d\x00\x00\x00@%\x00\x00\x00\x00\xd2\x06"\x08\x80\x04\x18\x01 \x03:\x08\n\x06xavierB\x0f\n\x08constant\x15\x00\x00\x00\x00\xa2\x06!\n\x07relu4_3\x12\x04ReLU\x1a\x07conv4_3"\x07conv4_3\xa2\x06)\n\x05pool4\x12\x07Pooling\x1a\x07conv4_3"\x05pool4\xca\x07\x06\x08\x00\x10\x02\x18\x02\xa2\x06f\n\x07conv5_1\x12\x0bConvolution\x1a\x05pool4"\x07conv5_12\n\x1d\x00\x00\x80?%\x00\x00\x80?2\n\x1d\x00\x00\x00@%\x00\x00\x00\x00\xd2\x06%\x08\x80\x04\x18\x01 \x03:\x08\n\x06xavierB\x0f\n\x08constant\x15\x00\x00\x00\x00\x90\x01\x01\xa2\x06!\n\x07relu5_1\x12\x04ReLU\x1a\x07conv5_1"\x07conv5_1\xa2\x06h\n\x07conv5_2\x12\x0bConvolution\x1a\x07conv5_1"\x07conv5_22\n\x1d\x00\x00\x80?%\x00\x00\x80?2\n\x1d\x00\x00\x00@%\x00\x00\x00\x00\xd2\x06%\x08\x80\x04\x18\x01 \x03:\x08\n\x06xavierB\x0f\n\x08constant\x15\x00\x00\x00\x00\x90\x01\x01\xa2\x06!\n\x07relu5_2\x12\x04ReLU\x1a\x07conv5_2"\x07conv5_2\xa2\x06h\n\x07conv5_3\x12\x0bConvolution\x1a\x07conv5_2"\x07conv5_32\n\x1d\x00\x00\x80?%\x00\x00\x80?2\n\x1d\x00\x00\x00@%\x00\x00\x00\x00\xd2\x06%\x08\x80\x04\x18\x01 \x03:\x08\n\x06xavierB\x0f\n\x08constant\x15\x00\x00\x00\x00\x90\x01\x01\xa2\x06!\n\x07relu5_3\x12\x04ReLU\x1a\x07conv5_3"\x07conv5_3\xa2\x06+\n\x05pool5\x12\x07Pooling\x1a\x07conv5_3"\x05pool5\xca\x07\x08\x08\x00\x10\x03\x18\x01 \x01\xa2\x06^\n\x03fc6\x12\x0bConvolution\x1a\x05pool5"\x03fc62\n\x1d\x00\x00\x80?%\x00\x00\x80?2\n\x1d\x00\x00\x00@%\x00\x00\x00\x00\xd2\x06%\x08\x80\x08\x18\x06 \x03:\x08\n\x06xavierB\x0f\n\x08constant\x15\x00\x00\x00\x00\x90\x01\x06\xa2\x06\x17\n\x05relu6\x12\x04ReLU\x1a\x03fc6"\x03fc6\xa2\x06W\n\x03fc7\x12\x0bConvolution\x1a\x03fc6"\x03fc72\n\x1d\x00\x00\x80?%\x00\x00\x80?2\n\x1d\x00\x00\x00@%\x00\x00\x00\x00\xd2\x06 \x08\x80\x08 \x01:\x08\n\x06xavierB\x0f\n\x08constant\x15\x00\x00\x00\x00\xa2\x06\x17\n\x05relu7\x12\x04ReLU\x1a\x03fc7"\x03fc7\xa2\x06c\n\x07conv6_1\x12\x0bConvolution\x1a\x03fc7"\x07conv6_12\n\x1d\x00\x00\x80?%\x00\x00\x80?2\n\x1d\x00\x00\x00@%\x00\x00\x00\x00\xd2\x06$\x08\x80\x02\x18\x00 \x010\x01:\x08\n\x06xavierB\x0f\n\x08constant\x15\x00\x00\x00\x00\xa2\x06&\n\x0cconv6_1_relu\x12\x04ReLU\x1a\x07conv6_1"\x07conv6_1\xa2\x06g\n\x07conv6_2\x12\x0bConvolution\x1a\x07conv6_1"\x07conv6_22\n\x1d\x00\x00\x80?%\x00\x00\x80?2\n\x1d\x00\x00\x00@%\x00\x00\x00\x00\xd2\x06$\x08\x80\x04\x18\x01 \x030\x02:\x08\n\x06xavierB\x0f\n\x08constant\x15\x00\x00\x00\x00\xa2\x06&\n\x0cconv6_2_relu\x12\x04ReLU\x1a\x07conv6_2"\x07conv6_2\xa2\x06g\n\x07conv7_1\x12\x0bConvolution\x1a\x07conv6_2"\x07conv7_12\n\x1d\x00\x00\x80?%\x00\x00\x80?2\n\x1d\x00\x00\x00@%\x00\x00\x00\x00\xd2\x06$\x08\x80\x01\x18\x00 \x010\x01:\x08\n\x06xavierB\x0f\n\x08constant\x15\x00\x00\x00\x00\xa2\x06&\n\x0cconv7_1_relu\x12\x04ReLU\x1a\x07conv7_1"\x07conv7_1\xa2\x06g\n\x07conv7_2\x12\x0bConvolution\x1a\x07conv7_1"\x07conv7_22\n\x1d\x00\x00\x80?%\x00\x00\x80?2\n\x1d\x00\x00\x00@%\x00\x00\x00\x00\xd2\x06$\x08\x80\x02\x18\x01 \x030\x02:\x08\n\x06xavierB\x0f\n\x08constant\x15\x00\x00\x00\x00\xa2\x06&\n\x0cconv7_2_relu\x12\x04ReLU\x1a\x07conv7_2"\x07conv7_2\xa2\x06g\n\x07conv8_1\x12\x0bConvolution\x1a\x07conv7_2"\x07conv8_12\n\x1d\x00\x00\x80?%\x00\x00\x80?2\n\x1d\x00\x00\x00@%\x00\x00\x00\x00\xd2\x06$\x08\x80\x01\x18\x00 \x010\x01:\x08\n\x06xavierB\x0f\n\x08constant\x15\x00\x00\x00\x00\xa2\x06&\n\x0cconv8_1_relu\x12\x04ReLU\x1a\x07conv8_1"\x07conv8_1\xa2\x06g\n\x07conv8_2\x12\x0bConvolution\x1a\x07conv8_1"\x07conv8_22\n\x1d\x00\x00\x80?%\x00\x00\x80?2\n\x1d\x00\x00\x00@%\x00\x00\x00\x00\xd2\x06$\x08\x80\x02\x18\x00 \x030\x01:\x08\n\x06xavierB\x0f\n\x08constant\x15\x00\x00\x00\x00\xa2\x06&\n\x0cconv8_2_relu\x12\x04ReLU\x1a\x07conv8_2"\x07conv8_2\xa2\x06g\n\x07conv9_1\x12\x0bConvolution\x1a\x07conv8_2"\x07conv9_12\n\x1d\x00\x00\x80?%\x00\x00\x80?2\n\x1d\x00\x00\x00@%\x00\x00\x00\x00\xd2\x06$\x08\x80\x01\x18\x00 \x010\x01:\x08\n\x06xavierB\x0f\n\x08constant\x15\x00\x00\x00\x00\xa2\x06&\n\x0cconv9_1_relu\x12\x04ReLU\x1a\x07conv9_1"\x07conv9_1\xa2\x06g\n\x07conv9_2\x12\x0bConvolution\x1a\x07conv9_1"\x07conv9_22\n\x1d\x00\x00\x80?%\x00\x00\x80?2\n\x1d\x00\x00\x00@%\x00\x00\x00\x00\xd2\x06$\x08\x80\x02\x18\x00 \x030\x01:\x08\n\x06xavierB\x0f\n\x08constant\x15\x00\x00\x00\x00\xa2\x06&\n\x0cconv9_2_relu\x12\x04ReLU\x1a\x07conv9_2"\x07conv9_2\xa2\x06H\n\x0cconv4_3_norm\x12\tNormalize\x1a\x07conv4_3"\x0cconv4_3_norm\xf2\x0c\x15\x08\x00\x12\x0f\n\x08constant\x15\x00\x00\xa0A\x18\x00\xa2\x06\x87\x01\n\x15conv4_3_norm_mbox_loc\x12\x0bConvolution\x1a\x0cconv4_3_norm"\x15conv4_3_norm_mbox_loc2\n\x1d\x00\x00\x80?%\x00\x00\x80?2\n\x1d\x00\x00\x00@%\x00\x00\x00\x00\xd2\x06#\x08\x10\x18\x01 \x030\x01:\x08\n\x06xavierB\x0f\n\x08constant\x15\x00\x00\x00\x00\xa2\x06c\n\x1aconv4_3_norm_mbox_loc_perm\x12\x07Permute\x1a\x15conv4_3_norm_mbox_loc"\x1aconv4_3_norm_mbox_loc_perm\xd2\x0c\x08\x08\x00\x08\x02\x08\x03\x08\x01\xa2\x06b\n\x1aconv4_3_norm_mbox_loc_flat\x12\x07Flatten\x1a\x1aconv4_3_norm_mbox_loc_perm"\x1aconv4_3_norm_mbox_loc_flat\xba\x08\x02\x08\x01\xa2\x06\x89\x01\n\x16conv4_3_norm_mbox_conf\x12\x0bConvolution\x1a\x0cconv4_3_norm"\x16conv4_3_norm_mbox_conf2\n\x1d\x00\x00\x80?%\x00\x00\x80?2\n\x1d\x00\x00\x00@%\x00\x00\x00\x00\xd2\x06#\x08T\x18\x01 \x030\x01:\x08\n\x06xavierB\x0f\n\x08constant\x15\x00\x00\x00\x00\xa2\x06f\n\x1bconv4_3_norm_mbox_conf_perm\x12\x07Permute\x1a\x16conv4_3_norm_mbox_conf"\x1bconv4_3_norm_mbox_conf_perm\xd2\x0c\x08\x08\x00\x08\x02\x08\x03\x08\x01\xa2\x06e\n\x1bconv4_3_norm_mbox_conf_flat\x12\x07Flatten\x1a\x1bconv4_3_norm_mbox_conf_perm"\x1bconv4_3_norm_mbox_conf_flat\xba\x08\x02\x08\x01\xa2\x06\x8a\x01\n\x1aconv4_3_norm_mbox_priorbox\x12\x08PriorBox\x1a\x0cconv4_3_norm\x1a\x04data"\x1aconv4_3_norm_mbox_priorbox\xda\x0c1\r\x00\x00\xf0A\x15\x00\x00pB\x1d\x00\x00\x00@ \x01(\x005\xcd\xcc\xcc=5\xcd\xcc\xcc=5\xcd\xccL>5\xcd\xccL>U\x00\x00\x00Am\x00\x00\x00?\xa2\x06l\n\x0cfc7_mbox_loc\x12\x0bConvolution\x1a\x03fc7"\x0cfc7_mbox_loc2\n\x1d\x00\x00\x80?%\x00\x00\x80?2\n\x1d\x00\x00\x00@%\x00\x00\x00\x00\xd2\x06#\x08\x18\x18\x01 \x030\x01:\x08\n\x06xavierB\x0f\n\x08constant\x15\x00\x00\x00\x00\xa2\x06H\n\x11fc7_mbox_loc_perm\x12\x07Permute\x1a\x0cfc7_mbox_loc"\x11fc7_mbox_loc_perm\xd2\x0c\x08\x08\x00\x08\x02\x08\x03\x08\x01\xa2\x06G\n\x11fc7_mbox_loc_flat\x12\x07Flatten\x1a\x11fc7_mbox_loc_perm"\x11fc7_mbox_loc_flat\xba\x08\x02\x08\x01\xa2\x06n\n\rfc7_mbox_conf\x12\x0bConvolution\x1a\x03fc7"\rfc7_mbox_conf2\n\x1d\x00\x00\x80?%\x00\x00\x80?2\n\x1d\x00\x00\x00@%\x00\x00\x00\x00\xd2\x06#\x08~\x18\x01 \x030\x01:\x08\n\x06xavierB\x0f\n\x08constant\x15\x00\x00\x00\x00\xa2\x06K\n\x12fc7_mbox_conf_perm\x12\x07Permute\x1a\rfc7_mbox_conf"\x12fc7_mbox_conf_perm\xd2\x0c\x08\x08\x00\x08\x02\x08\x03\x08\x01\xa2\x06J\n\x12fc7_mbox_conf_flat\x12\x07Flatten\x1a\x12fc7_mbox_conf_perm"\x12fc7_mbox_conf_flat\xba\x08\x02\x08\x01\xa2\x06t\n\x11fc7_mbox_priorbox\x12\x08PriorBox\x1a\x03fc7\x1a\x04data"\x11fc7_mbox_priorbox\xda\x0c6\r\x00\x00pB\x15\x00\x00\xdeB\x1d\x00\x00\x00@\x1d\x00\x00@@ \x01(\x005\xcd\xcc\xcc=5\xcd\xcc\xcc=5\xcd\xccL>5\xcd\xccL>U\x00\x00\x80Am\x00\x00\x00?\xa2\x06x\n\x10conv6_2_mbox_loc\x12\x0bConvolution\x1a\x07conv6_2"\x10conv6_2_mbox_loc2\n\x1d\x00\x00\x80?%\x00\x00\x80?2\n\x1d\x00\x00\x00@%\x00\x00\x00\x00\xd2\x06#\x08\x18\x18\x01 \x030\x01:\x08\n\x06xavierB\x0f\n\x08constant\x15\x00\x00\x00\x00\xa2\x06T\n\x15conv6_2_mbox_loc_perm\x12\x07Permute\x1a\x10conv6_2_mbox_loc"\x15conv6_2_mbox_loc_perm\xd2\x0c\x08\x08\x00\x08\x02\x08\x03\x08\x01\xa2\x06S\n\x15conv6_2_mbox_loc_flat\x12\x07Flatten\x1a\x15conv6_2_mbox_loc_perm"\x15conv6_2_mbox_loc_flat\xba\x08\x02\x08\x01\xa2\x06z\n\x11conv6_2_mbox_conf\x12\x0bConvolution\x1a\x07conv6_2"\x11conv6_2_mbox_conf2\n\x1d\x00\x00\x80?%\x00\x00\x80?2\n\x1d\x00\x00\x00@%\x00\x00\x00\x00\xd2\x06#\x08~\x18\x01 \x030\x01:\x08\n\x06xavierB\x0f\n\x08constant\x15\x00\x00\x00\x00\xa2\x06W\n\x16conv6_2_mbox_conf_perm\x12\x07Permute\x1a\x11conv6_2_mbox_conf"\x16conv6_2_mbox_conf_perm\xd2\x0c\x08\x08\x00\x08\x02\x08\x03\x08\x01\xa2\x06V\n\x16conv6_2_mbox_conf_flat\x12\x07Flatten\x1a\x16conv6_2_mbox_conf_perm"\x16conv6_2_mbox_conf_flat\xba\x08\x02\x08\x01\xa2\x06\x80\x01\n\x15conv6_2_mbox_priorbox\x12\x08PriorBox\x1a\x07conv6_2\x1a\x04data"\x15conv6_2_mbox_priorbox\xda\x0c6\r\x00\x00\xdeB\x15\x00\x00"C\x1d\x00\x00\x00@\x1d\x00\x00@@ \x01(\x005\xcd\xcc\xcc=5\xcd\xcc\xcc=5\xcd\xccL>5\xcd\xccL>U\x00\x00\x00Bm\x00\x00\x00?\xa2\x06x\n\x10conv7_2_mbox_loc\x12\x0bConvolution\x1a\x07conv7_2"\x10conv7_2_mbox_loc2\n\x1d\x00\x00\x80?%\x00\x00\x80?2\n\x1d\x00\x00\x00@%\x00\x00\x00\x00\xd2\x06#\x08\x18\x18\x01 \x030\x01:\x08\n\x06xavierB\x0f\n\x08constant\x15\x00\x00\x00\x00\xa2\x06T\n\x15conv7_2_mbox_loc_perm\x12\x07Permute\x1a\x10conv7_2_mbox_loc"\x15conv7_2_mbox_loc_perm\xd2\x0c\x08\x08\x00\x08\x02\x08\x03\x08\x01\xa2\x06S\n\x15conv7_2_mbox_loc_flat\x12\x07Flatten\x1a\x15conv7_2_mbox_loc_perm"\x15conv7_2_mbox_loc_flat\xba\x08\x02\x08\x01\xa2\x06z\n\x11conv7_2_mbox_conf\x12\x0bConvolution\x1a\x07conv7_2"\x11conv7_2_mbox_conf2\n\x1d\x00\x00\x80?%\x00\x00\x80?2\n\x1d\x00\x00\x00@%\x00\x00\x00\x00\xd2\x06#\x08~\x18\x01 \x030\x01:\x08\n\x06xavierB\x0f\n\x08constant\x15\x00\x00\x00\x00\xa2\x06W\n\x16conv7_2_mbox_conf_perm\x12\x07Permute\x1a\x11conv7_2_mbox_conf"\x16conv7_2_mbox_conf_perm\xd2\x0c\x08\x08\x00\x08\x02\x08\x03\x08\x01\xa2\x06V\n\x16conv7_2_mbox_conf_flat\x12\x07Flatten\x1a\x16conv7_2_mbox_conf_perm"\x16conv7_2_mbox_conf_flat\xba\x08\x02\x08\x01\xa2\x06\x80\x01\n\x15conv7_2_mbox_priorbox\x12\x08PriorBox\x1a\x07conv7_2\x1a\x04data"\x15conv7_2_mbox_priorbox\xda\x0c6\r\x00\x00"C\x15\x00\x00UC\x1d\x00\x00\x00@\x1d\x00\x00@@ \x01(\x005\xcd\xcc\xcc=5\xcd\xcc\xcc=5\xcd\xccL>5\xcd\xccL>U\x00\x00\x80Bm\x00\x00\x00?\xa2\x06x\n\x10conv8_2_mbox_loc\x12\x0bConvolution\x1a\x07conv8_2"\x10conv8_2_mbox_loc2\n\x1d\x00\x00\x80?%\x00\x00\x80?2\n\x1d\x00\x00\x00@%\x00\x00\x00\x00\xd2\x06#\x08\x10\x18\x01 \x030\x01:\x08\n\x06xavierB\x0f\n\x08constant\x15\x00\x00\x00\x00\xa2\x06T\n\x15conv8_2_mbox_loc_perm\x12\x07Permute\x1a\x10conv8_2_mbox_loc"\x15conv8_2_mbox_loc_perm\xd2\x0c\x08\x08\x00\x08\x02\x08\x03\x08\x01\xa2\x06S\n\x15conv8_2_mbox_loc_flat\x12\x07Flatten\x1a\x15conv8_2_mbox_loc_perm"\x15conv8_2_mbox_loc_flat\xba\x08\x02\x08\x01\xa2\x06z\n\x11conv8_2_mbox_conf\x12\x0bConvolution\x1a\x07conv8_2"\x11conv8_2_mbox_conf2\n\x1d\x00\x00\x80?%\x00\x00\x80?2\n\x1d\x00\x00\x00@%\x00\x00\x00\x00\xd2\x06#\x08T\x18\x01 \x030\x01:\x08\n\x06xavierB\x0f\n\x08constant\x15\x00\x00\x00\x00\xa2\x06W\n\x16conv8_2_mbox_conf_perm\x12\x07Permute\x1a\x11conv8_2_mbox_conf"\x16conv8_2_mbox_conf_perm\xd2\x0c\x08\x08\x00\x08\x02\x08\x03\x08\x01\xa2\x06V\n\x16conv8_2_mbox_conf_flat\x12\x07Flatten\x1a\x16conv8_2_mbox_conf_perm"\x16conv8_2_mbox_conf_flat\xba\x08\x02\x08\x01\xa2\x06{\n\x15conv8_2_mbox_priorbox\x12\x08PriorBox\x1a\x07conv8_2\x1a\x04data"\x15conv8_2_mbox_priorbox\xda\x0c1\r\x00\x00UC\x15\x00\x00\x84C\x1d\x00\x00\x00@ \x01(\x005\xcd\xcc\xcc=5\xcd\xcc\xcc=5\xcd\xccL>5\xcd\xccL>U\x00\x00\xc8Bm\x00\x00\x00?\xa2\x06x\n\x10conv9_2_mbox_loc\x12\x0bConvolution\x1a\x07conv9_2"\x10conv9_2_mbox_loc2\n\x1d\x00\x00\x80?%\x00\x00\x80?2\n\x1d\x00\x00\x00@%\x00\x00\x00\x00\xd2\x06#\x08\x10\x18\x01 \x030\x01:\x08\n\x06xavierB\x0f\n\x08constant\x15\x00\x00\x00\x00\xa2\x06T\n\x15conv9_2_mbox_loc_perm\x12\x07Permute\x1a\x10conv9_2_mbox_loc"\x15conv9_2_mbox_loc_perm\xd2\x0c\x08\x08\x00\x08\x02\x08\x03\x08\x01\xa2\x06S\n\x15conv9_2_mbox_loc_flat\x12\x07Flatten\x1a\x15conv9_2_mbox_loc_perm"\x15conv9_2_mbox_loc_flat\xba\x08\x02\x08\x01\xa2\x06z\n\x11conv9_2_mbox_conf\x12\x0bConvolution\x1a\x07conv9_2"\x11conv9_2_mbox_conf2\n\x1d\x00\x00\x80?%\x00\x00\x80?2\n\x1d\x00\x00\x00@%\x00\x00\x00\x00\xd2\x06#\x08T\x18\x01 \x030\x01:\x08\n\x06xavierB\x0f\n\x08constant\x15\x00\x00\x00\x00\xa2\x06W\n\x16conv9_2_mbox_conf_perm\x12\x07Permute\x1a\x11conv9_2_mbox_conf"\x16conv9_2_mbox_conf_perm\xd2\x0c\x08\x08\x00\x08\x02\x08\x03\x08\x01\xa2\x06V\n\x16conv9_2_mbox_conf_flat\x12\x07Flatten\x1a\x16conv9_2_mbox_conf_perm"\x16conv9_2_mbox_conf_flat\xba\x08\x02\x08\x01\xa2\x06{\n\x15conv9_2_mbox_priorbox\x12\x08PriorBox\x1a\x07conv9_2\x1a\x04data"\x15conv9_2_mbox_priorbox\xda\x0c1\r\x00\x00\x84C\x15\x00\x80\x9dC\x1d\x00\x00\x00@ \x01(\x005\xcd\xcc\xcc=5\xcd\xcc\xcc=5\xcd\xccL>5\xcd\xccL>U\x00\x00\x96Cm\x00\x00\x00?\xa2\x06\xac\x01\n\x08mbox_loc\x12\x06Concat\x1a\x1aconv4_3_norm_mbox_loc_flat\x1a\x11fc7_mbox_loc_flat\x1a\x15conv6_2_mbox_loc_flat\x1a\x15conv7_2_mbox_loc_flat\x1a\x15conv8_2_mbox_loc_flat\x1a\x15conv9_2_mbox_loc_flat"\x08mbox_loc\xc2\x06\x02\x10\x01\xa2\x06\xb4\x01\n\tmbox_conf\x12\x06Concat\x1a\x1bconv4_3_norm_mbox_conf_flat\x1a\x12fc7_mbox_conf_flat\x1a\x16conv6_2_mbox_conf_flat\x1a\x16conv7_2_mbox_conf_flat\x1a\x16conv8_2_mbox_conf_flat\x1a\x16conv9_2_mbox_conf_flat"\tmbox_conf\xc2\x06\x02\x10\x01\xa2\x06\xb6\x01\n\rmbox_priorbox\x12\x06Concat\x1a\x1aconv4_3_norm_mbox_priorbox\x1a\x11fc7_mbox_priorbox\x1a\x15conv6_2_mbox_priorbox\x1a\x15conv7_2_mbox_priorbox\x1a\x15conv8_2_mbox_priorbox\x1a\x15conv9_2_mbox_priorbox"\rmbox_priorbox\xc2\x06\x02\x10\x02\xa2\x06\x8f\x01\n\tmbox_loss\x12\x0cMultiBoxLoss\x1a\x08mbox_loc\x1a\tmbox_conf\x1a\rmbox_priorbox\x1a\x05label"\tmbox_lossB\x02\x08\x00X\x01X\x01X\x00X\x00\xaa\x06\x02\x18\x01\xca\x0c,\x08\x01\x10\x00\x1d\x00\x00\x80? \x15(\x010\x01=\x00\x00\x00?@\x01H\x00P\x01e\x00\x00@@m\x00\x00\x00?p\x02\x90\x01\x00\xa0\x01\x01'
p88
sbsS'use_mean'
p89
Vimage
p90
sS'model_file'
p91
S'original.prototxt'
p92
sS'test_batch_size'
p93
I2
sS'job_dir'
p94
S'/home/wills/Projects/digits-ssd/digits/jobs/20180108-223459-011d'
p95
sS'receiving_val_output'
p96
I00
sS'timeline_traces'
p97
(lp98
sS'lr_policy'
p99
(dp100
S'policy'
p101
Vstep
p102
sS'stepsize'
p103
F33.0
sS'gamma'
p104
F0.1
ssS'crop_size'
p105
NsS'val_interval'
p106
F1.0
sS'saving_snapshot'
p107
I00
sS'network_text'
p108
S'name: "VGG_VOC0712_SSD_300x300_train"\nlayer {\n  name: "data"\n  type: "AnnotatedData"\n  top: "data"\n  top: "label"\n  include {\n    phase: TRAIN\n  }\n  transform_param {\n    mirror: true\n    mean_value: 104.0\n    mean_value: 117.0\n    mean_value: 123.0\n    resize_param {\n      prob: 1.0\n      resize_mode: WARP\n      height: 300\n      width: 300\n      interp_mode: LINEAR\n      interp_mode: AREA\n      interp_mode: NEAREST\n      interp_mode: CUBIC\n      interp_mode: LANCZOS4\n    }\n    emit_constraint {\n      emit_type: CENTER\n    }\n    distort_param {\n      brightness_prob: 0.5\n      brightness_delta: 32.0\n      contrast_prob: 0.5\n      contrast_lower: 0.5\n      contrast_upper: 1.5\n      hue_prob: 0.5\n      hue_delta: 18.0\n      saturation_prob: 0.5\n      saturation_lower: 0.5\n      saturation_upper: 1.5\n      random_order_prob: 0.0\n    }\n    expand_param {\n      prob: 0.5\n      max_expand_ratio: 4.0\n    }\n  }\n  data_param {\n    source: "/home/wills/Projects/caffe-ssd/examples/VOC0712/VOC0712_trainval_lmdb"\n    batch_size: 32\n    backend: LMDB\n  }\n  annotated_data_param {\n    batch_sampler {\n      max_sample: 1\n      max_trials: 1\n    }\n    batch_sampler {\n      sampler {\n        min_scale: 0.300000011921\n        max_scale: 1.0\n        min_aspect_ratio: 0.5\n        max_aspect_ratio: 2.0\n      }\n      sample_constraint {\n        min_jaccard_overlap: 0.10000000149\n      }\n      max_sample: 1\n      max_trials: 50\n    }\n    batch_sampler {\n      sampler {\n        min_scale: 0.300000011921\n        max_scale: 1.0\n        min_aspect_ratio: 0.5\n        max_aspect_ratio: 2.0\n      }\n      sample_constraint {\n        min_jaccard_overlap: 0.300000011921\n      }\n      max_sample: 1\n      max_trials: 50\n    }\n    batch_sampler {\n      sampler {\n        min_scale: 0.300000011921\n        max_scale: 1.0\n        min_aspect_ratio: 0.5\n        max_aspect_ratio: 2.0\n      }\n      sample_constraint {\n        min_jaccard_overlap: 0.5\n      }\n      max_sample: 1\n      max_trials: 50\n    }\n    batch_sampler {\n      sampler {\n        min_scale: 0.300000011921\n        max_scale: 1.0\n        min_aspect_ratio: 0.5\n        max_aspect_ratio: 2.0\n      }\n      sample_constraint {\n        min_jaccard_overlap: 0.699999988079\n      }\n      max_sample: 1\n      max_trials: 50\n    }\n    batch_sampler {\n      sampler {\n        min_scale: 0.300000011921\n        max_scale: 1.0\n        min_aspect_ratio: 0.5\n        max_aspect_ratio: 2.0\n      }\n      sample_constraint {\n        min_jaccard_overlap: 0.899999976158\n      }\n      max_sample: 1\n      max_trials: 50\n    }\n    batch_sampler {\n      sampler {\n        min_scale: 0.300000011921\n        max_scale: 1.0\n        min_aspect_ratio: 0.5\n        max_aspect_ratio: 2.0\n      }\n      sample_constraint {\n        max_jaccard_overlap: 1.0\n      }\n      max_sample: 1\n      max_trials: 50\n    }\n    label_map_file: "/home/wills/Projects/caffe-ssd/data/VOC0712/labelmap_voc.prototxt"\n  }\n}\nlayer {\n  name: "conv1_1"\n  type: "Convolution"\n  bottom: "data"\n  top: "conv1_1"\n  param {\n    lr_mult: 1.0\n    decay_mult: 1.0\n  }\n  param {\n    lr_mult: 2.0\n    decay_mult: 0.0\n  }\n  convolution_param {\n    num_output: 64\n    pad: 1\n    kernel_size: 3\n    weight_filler {\n      type: "xavier"\n    }\n    bias_filler {\n      type: "constant"\n      value: 0.0\n    }\n  }\n}\nlayer {\n  name: "relu1_1"\n  type: "ReLU"\n  bottom: "conv1_1"\n  top: "conv1_1"\n}\nlayer {\n  name: "conv1_2"\n  type: "Convolution"\n  bottom: "conv1_1"\n  top: "conv1_2"\n  param {\n    lr_mult: 1.0\n    decay_mult: 1.0\n  }\n  param {\n    lr_mult: 2.0\n    decay_mult: 0.0\n  }\n  convolution_param {\n    num_output: 64\n    pad: 1\n    kernel_size: 3\n    weight_filler {\n      type: "xavier"\n    }\n    bias_filler {\n      type: "constant"\n      value: 0.0\n    }\n  }\n}\nlayer {\n  name: "relu1_2"\n  type: "ReLU"\n  bottom: "conv1_2"\n  top: "conv1_2"\n}\nlayer {\n  name: "pool1"\n  type: "Pooling"\n  bottom: "conv1_2"\n  top: "pool1"\n  pooling_param {\n    pool: MAX\n    kernel_size: 2\n    stride: 2\n  }\n}\nlayer {\n  name: "conv2_1"\n  type: "Convolution"\n  bottom: "pool1"\n  top: "conv2_1"\n  param {\n    lr_mult: 1.0\n    decay_mult: 1.0\n  }\n  param {\n    lr_mult: 2.0\n    decay_mult: 0.0\n  }\n  convolution_param {\n    num_output: 128\n    pad: 1\n    kernel_size: 3\n    weight_filler {\n      type: "xavier"\n    }\n    bias_filler {\n      type: "constant"\n      value: 0.0\n    }\n  }\n}\nlayer {\n  name: "relu2_1"\n  type: "ReLU"\n  bottom: "conv2_1"\n  top: "conv2_1"\n}\nlayer {\n  name: "conv2_2"\n  type: "Convolution"\n  bottom: "conv2_1"\n  top: "conv2_2"\n  param {\n    lr_mult: 1.0\n    decay_mult: 1.0\n  }\n  param {\n    lr_mult: 2.0\n    decay_mult: 0.0\n  }\n  convolution_param {\n    num_output: 128\n    pad: 1\n    kernel_size: 3\n    weight_filler {\n      type: "xavier"\n    }\n    bias_filler {\n      type: "constant"\n      value: 0.0\n    }\n  }\n}\nlayer {\n  name: "relu2_2"\n  type: "ReLU"\n  bottom: "conv2_2"\n  top: "conv2_2"\n}\nlayer {\n  name: "pool2"\n  type: "Pooling"\n  bottom: "conv2_2"\n  top: "pool2"\n  pooling_param {\n    pool: MAX\n    kernel_size: 2\n    stride: 2\n  }\n}\nlayer {\n  name: "conv3_1"\n  type: "Convolution"\n  bottom: "pool2"\n  top: "conv3_1"\n  param {\n    lr_mult: 1.0\n    decay_mult: 1.0\n  }\n  param {\n    lr_mult: 2.0\n    decay_mult: 0.0\n  }\n  convolution_param {\n    num_output: 256\n    pad: 1\n    kernel_size: 3\n    weight_filler {\n      type: "xavier"\n    }\n    bias_filler {\n      type: "constant"\n      value: 0.0\n    }\n  }\n}\nlayer {\n  name: "relu3_1"\n  type: "ReLU"\n  bottom: "conv3_1"\n  top: "conv3_1"\n}\nlayer {\n  name: "conv3_2"\n  type: "Convolution"\n  bottom: "conv3_1"\n  top: "conv3_2"\n  param {\n    lr_mult: 1.0\n    decay_mult: 1.0\n  }\n  param {\n    lr_mult: 2.0\n    decay_mult: 0.0\n  }\n  convolution_param {\n    num_output: 256\n    pad: 1\n    kernel_size: 3\n    weight_filler {\n      type: "xavier"\n    }\n    bias_filler {\n      type: "constant"\n      value: 0.0\n    }\n  }\n}\nlayer {\n  name: "relu3_2"\n  type: "ReLU"\n  bottom: "conv3_2"\n  top: "conv3_2"\n}\nlayer {\n  name: "conv3_3"\n  type: "Convolution"\n  bottom: "conv3_2"\n  top: "conv3_3"\n  param {\n    lr_mult: 1.0\n    decay_mult: 1.0\n  }\n  param {\n    lr_mult: 2.0\n    decay_mult: 0.0\n  }\n  convolution_param {\n    num_output: 256\n    pad: 1\n    kernel_size: 3\n    weight_filler {\n      type: "xavier"\n    }\n    bias_filler {\n      type: "constant"\n      value: 0.0\n    }\n  }\n}\nlayer {\n  name: "relu3_3"\n  type: "ReLU"\n  bottom: "conv3_3"\n  top: "conv3_3"\n}\nlayer {\n  name: "pool3"\n  type: "Pooling"\n  bottom: "conv3_3"\n  top: "pool3"\n  pooling_param {\n    pool: MAX\n    kernel_size: 2\n    stride: 2\n  }\n}\nlayer {\n  name: "conv4_1"\n  type: "Convolution"\n  bottom: "pool3"\n  top: "conv4_1"\n  param {\n    lr_mult: 1.0\n    decay_mult: 1.0\n  }\n  param {\n    lr_mult: 2.0\n    decay_mult: 0.0\n  }\n  convolution_param {\n    num_output: 512\n    pad: 1\n    kernel_size: 3\n    weight_filler {\n      type: "xavier"\n    }\n    bias_filler {\n      type: "constant"\n      value: 0.0\n    }\n  }\n}\nlayer {\n  name: "relu4_1"\n  type: "ReLU"\n  bottom: "conv4_1"\n  top: "conv4_1"\n}\nlayer {\n  name: "conv4_2"\n  type: "Convolution"\n  bottom: "conv4_1"\n  top: "conv4_2"\n  param {\n    lr_mult: 1.0\n    decay_mult: 1.0\n  }\n  param {\n    lr_mult: 2.0\n    decay_mult: 0.0\n  }\n  convolution_param {\n    num_output: 512\n    pad: 1\n    kernel_size: 3\n    weight_filler {\n      type: "xavier"\n    }\n    bias_filler {\n      type: "constant"\n      value: 0.0\n    }\n  }\n}\nlayer {\n  name: "relu4_2"\n  type: "ReLU"\n  bottom: "conv4_2"\n  top: "conv4_2"\n}\nlayer {\n  name: "conv4_3"\n  type: "Convolution"\n  bottom: "conv4_2"\n  top: "conv4_3"\n  param {\n    lr_mult: 1.0\n    decay_mult: 1.0\n  }\n  param {\n    lr_mult: 2.0\n    decay_mult: 0.0\n  }\n  convolution_param {\n    num_output: 512\n    pad: 1\n    kernel_size: 3\n    weight_filler {\n      type: "xavier"\n    }\n    bias_filler {\n      type: "constant"\n      value: 0.0\n    }\n  }\n}\nlayer {\n  name: "relu4_3"\n  type: "ReLU"\n  bottom: "conv4_3"\n  top: "conv4_3"\n}\nlayer {\n  name: "pool4"\n  type: "Pooling"\n  bottom: "conv4_3"\n  top: "pool4"\n  pooling_param {\n    pool: MAX\n    kernel_size: 2\n    stride: 2\n  }\n}\nlayer {\n  name: "conv5_1"\n  type: "Convolution"\n  bottom: "pool4"\n  top: "conv5_1"\n  param {\n    lr_mult: 1.0\n    decay_mult: 1.0\n  }\n  param {\n    lr_mult: 2.0\n    decay_mult: 0.0\n  }\n  convolution_param {\n    num_output: 512\n    pad: 1\n    kernel_size: 3\n    weight_filler {\n      type: "xavier"\n    }\n    bias_filler {\n      type: "constant"\n      value: 0.0\n    }\n    dilation: 1\n  }\n}\nlayer {\n  name: "relu5_1"\n  type: "ReLU"\n  bottom: "conv5_1"\n  top: "conv5_1"\n}\nlayer {\n  name: "conv5_2"\n  type: "Convolution"\n  bottom: "conv5_1"\n  top: "conv5_2"\n  param {\n    lr_mult: 1.0\n    decay_mult: 1.0\n  }\n  param {\n    lr_mult: 2.0\n    decay_mult: 0.0\n  }\n  convolution_param {\n    num_output: 512\n    pad: 1\n    kernel_size: 3\n    weight_filler {\n      type: "xavier"\n    }\n    bias_filler {\n      type: "constant"\n      value: 0.0\n    }\n    dilation: 1\n  }\n}\nlayer {\n  name: "relu5_2"\n  type: "ReLU"\n  bottom: "conv5_2"\n  top: "conv5_2"\n}\nlayer {\n  name: "conv5_3"\n  type: "Convolution"\n  bottom: "conv5_2"\n  top: "conv5_3"\n  param {\n    lr_mult: 1.0\n    decay_mult: 1.0\n  }\n  param {\n    lr_mult: 2.0\n    decay_mult: 0.0\n  }\n  convolution_param {\n    num_output: 512\n    pad: 1\n    kernel_size: 3\n    weight_filler {\n      type: "xavier"\n    }\n    bias_filler {\n      type: "constant"\n      value: 0.0\n    }\n    dilation: 1\n  }\n}\nlayer {\n  name: "relu5_3"\n  type: "ReLU"\n  bottom: "conv5_3"\n  top: "conv5_3"\n}\nlayer {\n  name: "pool5"\n  type: "Pooling"\n  bottom: "conv5_3"\n  top: "pool5"\n  pooling_param {\n    pool: MAX\n    kernel_size: 3\n    stride: 1\n    pad: 1\n  }\n}\nlayer {\n  name: "fc6"\n  type: "Convolution"\n  bottom: "pool5"\n  top: "fc6"\n  param {\n    lr_mult: 1.0\n    decay_mult: 1.0\n  }\n  param {\n    lr_mult: 2.0\n    decay_mult: 0.0\n  }\n  convolution_param {\n    num_output: 1024\n    pad: 6\n    kernel_size: 3\n    weight_filler {\n      type: "xavier"\n    }\n    bias_filler {\n      type: "constant"\n      value: 0.0\n    }\n    dilation: 6\n  }\n}\nlayer {\n  name: "relu6"\n  type: "ReLU"\n  bottom: "fc6"\n  top: "fc6"\n}\nlayer {\n  name: "fc7"\n  type: "Convolution"\n  bottom: "fc6"\n  top: "fc7"\n  param {\n    lr_mult: 1.0\n    decay_mult: 1.0\n  }\n  param {\n    lr_mult: 2.0\n    decay_mult: 0.0\n  }\n  convolution_param {\n    num_output: 1024\n    kernel_size: 1\n    weight_filler {\n      type: "xavier"\n    }\n    bias_filler {\n      type: "constant"\n      value: 0.0\n    }\n  }\n}\nlayer {\n  name: "relu7"\n  type: "ReLU"\n  bottom: "fc7"\n  top: "fc7"\n}\nlayer {\n  name: "conv6_1"\n  type: "Convolution"\n  bottom: "fc7"\n  top: "conv6_1"\n  param {\n    lr_mult: 1.0\n    decay_mult: 1.0\n  }\n  param {\n    lr_mult: 2.0\n    decay_mult: 0.0\n  }\n  convolution_param {\n    num_output: 256\n    pad: 0\n    kernel_size: 1\n    stride: 1\n    weight_filler {\n      type: "xavier"\n    }\n    bias_filler {\n      type: "constant"\n      value: 0.0\n    }\n  }\n}\nlayer {\n  name: "conv6_1_relu"\n  type: "ReLU"\n  bottom: "conv6_1"\n  top: "conv6_1"\n}\nlayer {\n  name: "conv6_2"\n  type: "Convolution"\n  bottom: "conv6_1"\n  top: "conv6_2"\n  param {\n    lr_mult: 1.0\n    decay_mult: 1.0\n  }\n  param {\n    lr_mult: 2.0\n    decay_mult: 0.0\n  }\n  convolution_param {\n    num_output: 512\n    pad: 1\n    kernel_size: 3\n    stride: 2\n    weight_filler {\n      type: "xavier"\n    }\n    bias_filler {\n      type: "constant"\n      value: 0.0\n    }\n  }\n}\nlayer {\n  name: "conv6_2_relu"\n  type: "ReLU"\n  bottom: "conv6_2"\n  top: "conv6_2"\n}\nlayer {\n  name: "conv7_1"\n  type: "Convolution"\n  bottom: "conv6_2"\n  top: "conv7_1"\n  param {\n    lr_mult: 1.0\n    decay_mult: 1.0\n  }\n  param {\n    lr_mult: 2.0\n    decay_mult: 0.0\n  }\n  convolution_param {\n    num_output: 128\n    pad: 0\n    kernel_size: 1\n    stride: 1\n    weight_filler {\n      type: "xavier"\n    }\n    bias_filler {\n      type: "constant"\n      value: 0.0\n    }\n  }\n}\nlayer {\n  name: "conv7_1_relu"\n  type: "ReLU"\n  bottom: "conv7_1"\n  top: "conv7_1"\n}\nlayer {\n  name: "conv7_2"\n  type: "Convolution"\n  bottom: "conv7_1"\n  top: "conv7_2"\n  param {\n    lr_mult: 1.0\n    decay_mult: 1.0\n  }\n  param {\n    lr_mult: 2.0\n    decay_mult: 0.0\n  }\n  convolution_param {\n    num_output: 256\n    pad: 1\n    kernel_size: 3\n    stride: 2\n    weight_filler {\n      type: "xavier"\n    }\n    bias_filler {\n      type: "constant"\n      value: 0.0\n    }\n  }\n}\nlayer {\n  name: "conv7_2_relu"\n  type: "ReLU"\n  bottom: "conv7_2"\n  top: "conv7_2"\n}\nlayer {\n  name: "conv8_1"\n  type: "Convolution"\n  bottom: "conv7_2"\n  top: "conv8_1"\n  param {\n    lr_mult: 1.0\n    decay_mult: 1.0\n  }\n  param {\n    lr_mult: 2.0\n    decay_mult: 0.0\n  }\n  convolution_param {\n    num_output: 128\n    pad: 0\n    kernel_size: 1\n    stride: 1\n    weight_filler {\n      type: "xavier"\n    }\n    bias_filler {\n      type: "constant"\n      value: 0.0\n    }\n  }\n}\nlayer {\n  name: "conv8_1_relu"\n  type: "ReLU"\n  bottom: "conv8_1"\n  top: "conv8_1"\n}\nlayer {\n  name: "conv8_2"\n  type: "Convolution"\n  bottom: "conv8_1"\n  top: "conv8_2"\n  param {\n    lr_mult: 1.0\n    decay_mult: 1.0\n  }\n  param {\n    lr_mult: 2.0\n    decay_mult: 0.0\n  }\n  convolution_param {\n    num_output: 256\n    pad: 0\n    kernel_size: 3\n    stride: 1\n    weight_filler {\n      type: "xavier"\n    }\n    bias_filler {\n      type: "constant"\n      value: 0.0\n    }\n  }\n}\nlayer {\n  name: "conv8_2_relu"\n  type: "ReLU"\n  bottom: "conv8_2"\n  top: "conv8_2"\n}\nlayer {\n  name: "conv9_1"\n  type: "Convolution"\n  bottom: "conv8_2"\n  top: "conv9_1"\n  param {\n    lr_mult: 1.0\n    decay_mult: 1.0\n  }\n  param {\n    lr_mult: 2.0\n    decay_mult: 0.0\n  }\n  convolution_param {\n    num_output: 128\n    pad: 0\n    kernel_size: 1\n    stride: 1\n    weight_filler {\n      type: "xavier"\n    }\n    bias_filler {\n      type: "constant"\n      value: 0.0\n    }\n  }\n}\nlayer {\n  name: "conv9_1_relu"\n  type: "ReLU"\n  bottom: "conv9_1"\n  top: "conv9_1"\n}\nlayer {\n  name: "conv9_2"\n  type: "Convolution"\n  bottom: "conv9_1"\n  top: "conv9_2"\n  param {\n    lr_mult: 1.0\n    decay_mult: 1.0\n  }\n  param {\n    lr_mult: 2.0\n    decay_mult: 0.0\n  }\n  convolution_param {\n    num_output: 256\n    pad: 0\n    kernel_size: 3\n    stride: 1\n    weight_filler {\n      type: "xavier"\n    }\n    bias_filler {\n      type: "constant"\n      value: 0.0\n    }\n  }\n}\nlayer {\n  name: "conv9_2_relu"\n  type: "ReLU"\n  bottom: "conv9_2"\n  top: "conv9_2"\n}\nlayer {\n  name: "conv4_3_norm"\n  type: "Normalize"\n  bottom: "conv4_3"\n  top: "conv4_3_norm"\n  norm_param {\n    across_spatial: false\n    scale_filler {\n      type: "constant"\n      value: 20.0\n    }\n    channel_shared: false\n  }\n}\nlayer {\n  name: "conv4_3_norm_mbox_loc"\n  type: "Convolution"\n  bottom: "conv4_3_norm"\n  top: "conv4_3_norm_mbox_loc"\n  param {\n    lr_mult: 1.0\n    decay_mult: 1.0\n  }\n  param {\n    lr_mult: 2.0\n    decay_mult: 0.0\n  }\n  convolution_param {\n    num_output: 16\n    pad: 1\n    kernel_size: 3\n    stride: 1\n    weight_filler {\n      type: "xavier"\n    }\n    bias_filler {\n      type: "constant"\n      value: 0.0\n    }\n  }\n}\nlayer {\n  name: "conv4_3_norm_mbox_loc_perm"\n  type: "Permute"\n  bottom: "conv4_3_norm_mbox_loc"\n  top: "conv4_3_norm_mbox_loc_perm"\n  permute_param {\n    order: 0\n    order: 2\n    order: 3\n    order: 1\n  }\n}\nlayer {\n  name: "conv4_3_norm_mbox_loc_flat"\n  type: "Flatten"\n  bottom: "conv4_3_norm_mbox_loc_perm"\n  top: "conv4_3_norm_mbox_loc_flat"\n  flatten_param {\n    axis: 1\n  }\n}\nlayer {\n  name: "conv4_3_norm_mbox_conf"\n  type: "Convolution"\n  bottom: "conv4_3_norm"\n  top: "conv4_3_norm_mbox_conf"\n  param {\n    lr_mult: 1.0\n    decay_mult: 1.0\n  }\n  param {\n    lr_mult: 2.0\n    decay_mult: 0.0\n  }\n  convolution_param {\n    num_output: 84\n    pad: 1\n    kernel_size: 3\n    stride: 1\n    weight_filler {\n      type: "xavier"\n    }\n    bias_filler {\n      type: "constant"\n      value: 0.0\n    }\n  }\n}\nlayer {\n  name: "conv4_3_norm_mbox_conf_perm"\n  type: "Permute"\n  bottom: "conv4_3_norm_mbox_conf"\n  top: "conv4_3_norm_mbox_conf_perm"\n  permute_param {\n    order: 0\n    order: 2\n    order: 3\n    order: 1\n  }\n}\nlayer {\n  name: "conv4_3_norm_mbox_conf_flat"\n  type: "Flatten"\n  bottom: "conv4_3_norm_mbox_conf_perm"\n  top: "conv4_3_norm_mbox_conf_flat"\n  flatten_param {\n    axis: 1\n  }\n}\nlayer {\n  name: "conv4_3_norm_mbox_priorbox"\n  type: "PriorBox"\n  bottom: "conv4_3_norm"\n  bottom: "data"\n  top: "conv4_3_norm_mbox_priorbox"\n  prior_box_param {\n    min_size: 30.0\n    max_size: 60.0\n    aspect_ratio: 2.0\n    flip: true\n    clip: false\n    variance: 0.10000000149\n    variance: 0.10000000149\n    variance: 0.20000000298\n    variance: 0.20000000298\n    step: 8.0\n    offset: 0.5\n  }\n}\nlayer {\n  name: "fc7_mbox_loc"\n  type: "Convolution"\n  bottom: "fc7"\n  top: "fc7_mbox_loc"\n  param {\n    lr_mult: 1.0\n    decay_mult: 1.0\n  }\n  param {\n    lr_mult: 2.0\n    decay_mult: 0.0\n  }\n  convolution_param {\n    num_output: 24\n    pad: 1\n    kernel_size: 3\n    stride: 1\n    weight_filler {\n      type: "xavier"\n    }\n    bias_filler {\n      type: "constant"\n      value: 0.0\n    }\n  }\n}\nlayer {\n  name: "fc7_mbox_loc_perm"\n  type: "Permute"\n  bottom: "fc7_mbox_loc"\n  top: "fc7_mbox_loc_perm"\n  permute_param {\n    order: 0\n    order: 2\n    order: 3\n    order: 1\n  }\n}\nlayer {\n  name: "fc7_mbox_loc_flat"\n  type: "Flatten"\n  bottom: "fc7_mbox_loc_perm"\n  top: "fc7_mbox_loc_flat"\n  flatten_param {\n    axis: 1\n  }\n}\nlayer {\n  name: "fc7_mbox_conf"\n  type: "Convolution"\n  bottom: "fc7"\n  top: "fc7_mbox_conf"\n  param {\n    lr_mult: 1.0\n    decay_mult: 1.0\n  }\n  param {\n    lr_mult: 2.0\n    decay_mult: 0.0\n  }\n  convolution_param {\n    num_output: 126\n    pad: 1\n    kernel_size: 3\n    stride: 1\n    weight_filler {\n      type: "xavier"\n    }\n    bias_filler {\n      type: "constant"\n      value: 0.0\n    }\n  }\n}\nlayer {\n  name: "fc7_mbox_conf_perm"\n  type: "Permute"\n  bottom: "fc7_mbox_conf"\n  top: "fc7_mbox_conf_perm"\n  permute_param {\n    order: 0\n    order: 2\n    order: 3\n    order: 1\n  }\n}\nlayer {\n  name: "fc7_mbox_conf_flat"\n  type: "Flatten"\n  bottom: "fc7_mbox_conf_perm"\n  top: "fc7_mbox_conf_flat"\n  flatten_param {\n    axis: 1\n  }\n}\nlayer {\n  name: "fc7_mbox_priorbox"\n  type: "PriorBox"\n  bottom: "fc7"\n  bottom: "data"\n  top: "fc7_mbox_priorbox"\n  prior_box_param {\n    min_size: 60.0\n    max_size: 111.0\n    aspect_ratio: 2.0\n    aspect_ratio: 3.0\n    flip: true\n    clip: false\n    variance: 0.10000000149\n    variance: 0.10000000149\n    variance: 0.20000000298\n    variance: 0.20000000298\n    step: 16.0\n    offset: 0.5\n  }\n}\nlayer {\n  name: "conv6_2_mbox_loc"\n  type: "Convolution"\n  bottom: "conv6_2"\n  top: "conv6_2_mbox_loc"\n  param {\n    lr_mult: 1.0\n    decay_mult: 1.0\n  }\n  param {\n    lr_mult: 2.0\n    decay_mult: 0.0\n  }\n  convolution_param {\n    num_output: 24\n    pad: 1\n    kernel_size: 3\n    stride: 1\n    weight_filler {\n      type: "xavier"\n    }\n    bias_filler {\n      type: "constant"\n      value: 0.0\n    }\n  }\n}\nlayer {\n  name: "conv6_2_mbox_loc_perm"\n  type: "Permute"\n  bottom: "conv6_2_mbox_loc"\n  top: "conv6_2_mbox_loc_perm"\n  permute_param {\n    order: 0\n    order: 2\n    order: 3\n    order: 1\n  }\n}\nlayer {\n  name: "conv6_2_mbox_loc_flat"\n  type: "Flatten"\n  bottom: "conv6_2_mbox_loc_perm"\n  top: "conv6_2_mbox_loc_flat"\n  flatten_param {\n    axis: 1\n  }\n}\nlayer {\n  name: "conv6_2_mbox_conf"\n  type: "Convolution"\n  bottom: "conv6_2"\n  top: "conv6_2_mbox_conf"\n  param {\n    lr_mult: 1.0\n    decay_mult: 1.0\n  }\n  param {\n    lr_mult: 2.0\n    decay_mult: 0.0\n  }\n  convolution_param {\n    num_output: 126\n    pad: 1\n    kernel_size: 3\n    stride: 1\n    weight_filler {\n      type: "xavier"\n    }\n    bias_filler {\n      type: "constant"\n      value: 0.0\n    }\n  }\n}\nlayer {\n  name: "conv6_2_mbox_conf_perm"\n  type: "Permute"\n  bottom: "conv6_2_mbox_conf"\n  top: "conv6_2_mbox_conf_perm"\n  permute_param {\n    order: 0\n    order: 2\n    order: 3\n    order: 1\n  }\n}\nlayer {\n  name: "conv6_2_mbox_conf_flat"\n  type: "Flatten"\n  bottom: "conv6_2_mbox_conf_perm"\n  top: "conv6_2_mbox_conf_flat"\n  flatten_param {\n    axis: 1\n  }\n}\nlayer {\n  name: "conv6_2_mbox_priorbox"\n  type: "PriorBox"\n  bottom: "conv6_2"\n  bottom: "data"\n  top: "conv6_2_mbox_priorbox"\n  prior_box_param {\n    min_size: 111.0\n    max_size: 162.0\n    aspect_ratio: 2.0\n    aspect_ratio: 3.0\n    flip: true\n    clip: false\n    variance: 0.10000000149\n    variance: 0.10000000149\n    variance: 0.20000000298\n    variance: 0.20000000298\n    step: 32.0\n    offset: 0.5\n  }\n}\nlayer {\n  name: "conv7_2_mbox_loc"\n  type: "Convolution"\n  bottom: "conv7_2"\n  top: "conv7_2_mbox_loc"\n  param {\n    lr_mult: 1.0\n    decay_mult: 1.0\n  }\n  param {\n    lr_mult: 2.0\n    decay_mult: 0.0\n  }\n  convolution_param {\n    num_output: 24\n    pad: 1\n    kernel_size: 3\n    stride: 1\n    weight_filler {\n      type: "xavier"\n    }\n    bias_filler {\n      type: "constant"\n      value: 0.0\n    }\n  }\n}\nlayer {\n  name: "conv7_2_mbox_loc_perm"\n  type: "Permute"\n  bottom: "conv7_2_mbox_loc"\n  top: "conv7_2_mbox_loc_perm"\n  permute_param {\n    order: 0\n    order: 2\n    order: 3\n    order: 1\n  }\n}\nlayer {\n  name: "conv7_2_mbox_loc_flat"\n  type: "Flatten"\n  bottom: "conv7_2_mbox_loc_perm"\n  top: "conv7_2_mbox_loc_flat"\n  flatten_param {\n    axis: 1\n  }\n}\nlayer {\n  name: "conv7_2_mbox_conf"\n  type: "Convolution"\n  bottom: "conv7_2"\n  top: "conv7_2_mbox_conf"\n  param {\n    lr_mult: 1.0\n    decay_mult: 1.0\n  }\n  param {\n    lr_mult: 2.0\n    decay_mult: 0.0\n  }\n  convolution_param {\n    num_output: 126\n    pad: 1\n    kernel_size: 3\n    stride: 1\n    weight_filler {\n      type: "xavier"\n    }\n    bias_filler {\n      type: "constant"\n      value: 0.0\n    }\n  }\n}\nlayer {\n  name: "conv7_2_mbox_conf_perm"\n  type: "Permute"\n  bottom: "conv7_2_mbox_conf"\n  top: "conv7_2_mbox_conf_perm"\n  permute_param {\n    order: 0\n    order: 2\n    order: 3\n    order: 1\n  }\n}\nlayer {\n  name: "conv7_2_mbox_conf_flat"\n  type: "Flatten"\n  bottom: "conv7_2_mbox_conf_perm"\n  top: "conv7_2_mbox_conf_flat"\n  flatten_param {\n    axis: 1\n  }\n}\nlayer {\n  name: "conv7_2_mbox_priorbox"\n  type: "PriorBox"\n  bottom: "conv7_2"\n  bottom: "data"\n  top: "conv7_2_mbox_priorbox"\n  prior_box_param {\n    min_size: 162.0\n    max_size: 213.0\n    aspect_ratio: 2.0\n    aspect_ratio: 3.0\n    flip: true\n    clip: false\n    variance: 0.10000000149\n    variance: 0.10000000149\n    variance: 0.20000000298\n    variance: 0.20000000298\n    step: 64.0\n    offset: 0.5\n  }\n}\nlayer {\n  name: "conv8_2_mbox_loc"\n  type: "Convolution"\n  bottom: "conv8_2"\n  top: "conv8_2_mbox_loc"\n  param {\n    lr_mult: 1.0\n    decay_mult: 1.0\n  }\n  param {\n    lr_mult: 2.0\n    decay_mult: 0.0\n  }\n  convolution_param {\n    num_output: 16\n    pad: 1\n    kernel_size: 3\n    stride: 1\n    weight_filler {\n      type: "xavier"\n    }\n    bias_filler {\n      type: "constant"\n      value: 0.0\n    }\n  }\n}\nlayer {\n  name: "conv8_2_mbox_loc_perm"\n  type: "Permute"\n  bottom: "conv8_2_mbox_loc"\n  top: "conv8_2_mbox_loc_perm"\n  permute_param {\n    order: 0\n    order: 2\n    order: 3\n    order: 1\n  }\n}\nlayer {\n  name: "conv8_2_mbox_loc_flat"\n  type: "Flatten"\n  bottom: "conv8_2_mbox_loc_perm"\n  top: "conv8_2_mbox_loc_flat"\n  flatten_param {\n    axis: 1\n  }\n}\nlayer {\n  name: "conv8_2_mbox_conf"\n  type: "Convolution"\n  bottom: "conv8_2"\n  top: "conv8_2_mbox_conf"\n  param {\n    lr_mult: 1.0\n    decay_mult: 1.0\n  }\n  param {\n    lr_mult: 2.0\n    decay_mult: 0.0\n  }\n  convolution_param {\n    num_output: 84\n    pad: 1\n    kernel_size: 3\n    stride: 1\n    weight_filler {\n      type: "xavier"\n    }\n    bias_filler {\n      type: "constant"\n      value: 0.0\n    }\n  }\n}\nlayer {\n  name: "conv8_2_mbox_conf_perm"\n  type: "Permute"\n  bottom: "conv8_2_mbox_conf"\n  top: "conv8_2_mbox_conf_perm"\n  permute_param {\n    order: 0\n    order: 2\n    order: 3\n    order: 1\n  }\n}\nlayer {\n  name: "conv8_2_mbox_conf_flat"\n  type: "Flatten"\n  bottom: "conv8_2_mbox_conf_perm"\n  top: "conv8_2_mbox_conf_flat"\n  flatten_param {\n    axis: 1\n  }\n}\nlayer {\n  name: "conv8_2_mbox_priorbox"\n  type: "PriorBox"\n  bottom: "conv8_2"\n  bottom: "data"\n  top: "conv8_2_mbox_priorbox"\n  prior_box_param {\n    min_size: 213.0\n    max_size: 264.0\n    aspect_ratio: 2.0\n    flip: true\n    clip: false\n    variance: 0.10000000149\n    variance: 0.10000000149\n    variance: 0.20000000298\n    variance: 0.20000000298\n    step: 100.0\n    offset: 0.5\n  }\n}\nlayer {\n  name: "conv9_2_mbox_loc"\n  type: "Convolution"\n  bottom: "conv9_2"\n  top: "conv9_2_mbox_loc"\n  param {\n    lr_mult: 1.0\n    decay_mult: 1.0\n  }\n  param {\n    lr_mult: 2.0\n    decay_mult: 0.0\n  }\n  convolution_param {\n    num_output: 16\n    pad: 1\n    kernel_size: 3\n    stride: 1\n    weight_filler {\n      type: "xavier"\n    }\n    bias_filler {\n      type: "constant"\n      value: 0.0\n    }\n  }\n}\nlayer {\n  name: "conv9_2_mbox_loc_perm"\n  type: "Permute"\n  bottom: "conv9_2_mbox_loc"\n  top: "conv9_2_mbox_loc_perm"\n  permute_param {\n    order: 0\n    order: 2\n    order: 3\n    order: 1\n  }\n}\nlayer {\n  name: "conv9_2_mbox_loc_flat"\n  type: "Flatten"\n  bottom: "conv9_2_mbox_loc_perm"\n  top: "conv9_2_mbox_loc_flat"\n  flatten_param {\n    axis: 1\n  }\n}\nlayer {\n  name: "conv9_2_mbox_conf"\n  type: "Convolution"\n  bottom: "conv9_2"\n  top: "conv9_2_mbox_conf"\n  param {\n    lr_mult: 1.0\n    decay_mult: 1.0\n  }\n  param {\n    lr_mult: 2.0\n    decay_mult: 0.0\n  }\n  convolution_param {\n    num_output: 84\n    pad: 1\n    kernel_size: 3\n    stride: 1\n    weight_filler {\n      type: "xavier"\n    }\n    bias_filler {\n      type: "constant"\n      value: 0.0\n    }\n  }\n}\nlayer {\n  name: "conv9_2_mbox_conf_perm"\n  type: "Permute"\n  bottom: "conv9_2_mbox_conf"\n  top: "conv9_2_mbox_conf_perm"\n  permute_param {\n    order: 0\n    order: 2\n    order: 3\n    order: 1\n  }\n}\nlayer {\n  name: "conv9_2_mbox_conf_flat"\n  type: "Flatten"\n  bottom: "conv9_2_mbox_conf_perm"\n  top: "conv9_2_mbox_conf_flat"\n  flatten_param {\n    axis: 1\n  }\n}\nlayer {\n  name: "conv9_2_mbox_priorbox"\n  type: "PriorBox"\n  bottom: "conv9_2"\n  bottom: "data"\n  top: "conv9_2_mbox_priorbox"\n  prior_box_param {\n    min_size: 264.0\n    max_size: 315.0\n    aspect_ratio: 2.0\n    flip: true\n    clip: false\n    variance: 0.10000000149\n    variance: 0.10000000149\n    variance: 0.20000000298\n    variance: 0.20000000298\n    step: 300.0\n    offset: 0.5\n  }\n}\nlayer {\n  name: "mbox_loc"\n  type: "Concat"\n  bottom: "conv4_3_norm_mbox_loc_flat"\n  bottom: "fc7_mbox_loc_flat"\n  bottom: "conv6_2_mbox_loc_flat"\n  bottom: "conv7_2_mbox_loc_flat"\n  bottom: "conv8_2_mbox_loc_flat"\n  bottom: "conv9_2_mbox_loc_flat"\n  top: "mbox_loc"\n  concat_param {\n    axis: 1\n  }\n}\nlayer {\n  name: "mbox_conf"\n  type: "Concat"\n  bottom: "conv4_3_norm_mbox_conf_flat"\n  bottom: "fc7_mbox_conf_flat"\n  bottom: "conv6_2_mbox_conf_flat"\n  bottom: "conv7_2_mbox_conf_flat"\n  bottom: "conv8_2_mbox_conf_flat"\n  bottom: "conv9_2_mbox_conf_flat"\n  top: "mbox_conf"\n  concat_param {\n    axis: 1\n  }\n}\nlayer {\n  name: "mbox_priorbox"\n  type: "Concat"\n  bottom: "conv4_3_norm_mbox_priorbox"\n  bottom: "fc7_mbox_priorbox"\n  bottom: "conv6_2_mbox_priorbox"\n  bottom: "conv7_2_mbox_priorbox"\n  bottom: "conv8_2_mbox_priorbox"\n  bottom: "conv9_2_mbox_priorbox"\n  top: "mbox_priorbox"\n  concat_param {\n    axis: 2\n  }\n}\nlayer {\n  name: "mbox_loss"\n  type: "MultiBoxLoss"\n  bottom: "mbox_loc"\n  bottom: "mbox_conf"\n  bottom: "mbox_priorbox"\n  bottom: "label"\n  top: "mbox_loss"\n  include {\n    phase: TRAIN\n  }\n  propagate_down: true\n  propagate_down: true\n  propagate_down: false\n  propagate_down: false\n  loss_param {\n    normalization: VALID\n  }\n  multibox_loss_param {\n    loc_loss_type: SMOOTH_L1\n    conf_loss_type: SOFTMAX\n    loc_weight: 1.0\n    num_classes: 21\n    share_location: true\n    match_type: PER_PREDICTION\n    overlap_threshold: 0.5\n    use_prior_for_matching: true\n    background_label_id: 0\n    use_difficult_gt: true\n    neg_pos_ratio: 3.0\n    neg_overlap: 0.5\n    code_type: CENTER_SIZE\n    ignore_cross_boundary_bbox: false\n    mining_type: MAX_NEGATIVE\n  }\n}\n\n'
p109
sS'pickver_task_caffe_train'
p110
I5
sS'learning_rate'
p111
F0.01
sS'digits_version'
p112
S'6.0.0-rc.1'
p113
sS'batch_size'
p114
I2
sS'job'
p115
g4
sS'pickver_task_train'
p116
I2
sS'pickver_task'
p117
I1
sS'data_aug'
p118
(dp119
S'scale'
p120
F0.0
sS'hsv_use'
p121
I00
sS'flip'
p122
Vnone
p123
sS'quad_rot'
p124
Vnone
p125
sS'noise'
p126
F0.0
sS'whitening'
p127
I00
sS'hsv_h'
p128
F0.02
sS'hsv_s'
p129
F0.04
sS'rot'
p130
I0
sS'hsv_v'
p131
F0.06
sS'contrast'
p132
F0.0
ssS'snapshot_prefix'
p133
S'snapshot'
p134
sS'traceback'
p135
S'Traceback (most recent call last):\n  File "digits/scheduler.py", line 512, in run_task\n    task.run(resources)\n  File "digits/model/tasks/distrib_caffe_train.py", line 183, in run\n    thread_log = job_client.training_request( job_server_addr, (\' \').join(args) , self.job_dir, self.job_id, self.data_dir, self.network_type)\n  File "digits/model/tasks/job_client.py", line 184, in training_request\n    sock.connect(addr)\n  File "/usr/lib/python2.7/dist-packages/gevent/_socket2.py", line 228, in connect\n    raise error(err, strerror(err))\nerror: [Errno 111] Connection refused\n'
p136
sS'solver_file'
p137
S'solver.prototxt'
p138
sS'image_mean'
p139
NsS'batch_accumulation'
p140
I2
sS'log_file'
p141
S'caffe_output.log'
p142
sS'network_type'
p143
Vattributes
p144
sS'solver_type'
p145
VSGD
p146
sbasS'pickver_job_model_image_generic'
p147
I1
sS'pickver_job'
p148
I2
sS'dataset_id'
p149
S'20180108-223220-4081'
p150
sS'pickver_job_model_image'
p151
I1
sg42
NsS'group'
p152
Vobject_detection
p153
sS'persistent'
p154
I01
sS'_name'
p155
VmyNet
p156
sS'form_data'
p157
(dp158
S'form.standard_networks.data'
p159
g144
sS'form.learning_rate.data'
p160
(lp161
F0.01
asS'form.model_name.data'
p162
g156
sS'form.aug_flip.data'
p163
g123
sS'form.select_gpus.data'
p164
(lp165
sS'form.framework.data'
p166
Vcaffe
p167
sS'form.dataset.data'
p168
V20180108-223220-4081
p169
sS'form.python_layer_from_client.data'
p170
I00
sS'form.lr_multistep_values.data'
p171
V50,85
p172
sS'form.aug_hsv_s.data'
p173
F0.04
sS'form.lr_sigmoid_gamma.data'
p174
F0.1
sS'form.lr_policy.data'
p175
g102
sS'form.random_seed.data'
p176
NsS'form.aug_rot.data'
p177
I0
sS'form.previous_networks.data'
p178
VNone
p179
sS'form.aug_quad_rot.data'
p180
g125
sS'form.rms_decay.data'
p181
F0.99
sS'form.method.data'
p182
Vstandard
p183
sS'form.lr_sigmoid_step.data'
p184
F50.0
sS'form.crop_size.data'
p185
NsS'form.select_gpu_count.data'
p186
I1
sS'form.python_layer_server_file.data'
p187
V
p188
sS'form.test_batch_size.data'
p189
(lp190
I2
asS'form.aug_hsv_v.data'
p191
F0.06
sS'form.train_server_port.data'
p192
g41
sS'form.aug_noise.data'
p193
F0.0
sS'form.select_gpus_list.data'
p194
g188
sS'form.traces_interval.data'
p195
I0
sS'form.shuffle.data'
p196
I01
sS'form.aug_scale.data'
p197
F0.0
sS'form.batch_accumulation.data'
p198
I2
sS'form.max_iter_num.data'
p199
I500
sS'form.custom_network.data'
p200
g188
sS'form.group_name.data'
p201
g153
sS'form.val_interval.data'
p202
F1.0
sS'form.lr_inv_gamma.data'
p203
F0.1
sS'form.lr_poly_power.data'
p204
F3.0
sS'form.snapshot_interval.data'
p205
F1.0
sS'form.lr_step_size.data'
p206
F33.0
sS'form.aug_hsv_use.data'
p207
I00
sS'form.lr_inv_power.data'
p208
F0.5
sS'form.train_server_ip.data'
p209
g34
sS'form.aug_whitening.data'
p210
I00
sS'form.pretrained_networks.data'
p211
VNone
p212
sS'form.custom_network_snapshot.data'
p213
g188
sS'form.lr_step_gamma.data'
p214
F0.1
sS'form.lr_multistep_gamma.data'
p215
F0.5
sS'form.select_gpu.data'
p216
Vnext
p217
sS'form.lr_exp_gamma.data'
p218
F0.95
sS'form.use_mean.data'
p219
g90
sS'form.aug_contrast.data'
p220
F0.0
sS'form.solver_type.data'
p221
g146
sS'form.train_epochs.data'
p222
I500
sS'form.batch_size.data'
p223
(lp224
I2
asS'form.aug_hsv_h.data'
p225
F0.02
ssg38
I0
sS'_id'
p226
S'20180108-223459-011d'
p227
sS'pickver_job_dataset'
p228
I1
sg61
(lp229
((idigits.status
Status
p230
g65
bF1515479699.533231
tp231
a((idigits.status
Status
p232
g68
bF1515479700.714458
tp233
a((idigits.status
Status
p234
g71
bF1515479722.353251
tp235
asb.