ccopy_reg
_reconstructor
p0
(cdigits.model.images.generic.job
GenericImageModelJob
p1
c__builtin__
object
p2
Ntp3
Rp4
(dp5
S'username'
p6
Vwills
p7
sS'_notes'
p8
NsS'tasks'
p9
(lp10
g0
(cdigits.model.tasks.distrib_caffe_train
DistributedTrainTask
p11
g2
Ntp12
Rp13
(dp14
S'shuffle'
p15
I01
sS'train_outputs'
p16
ccollections
OrderedDict
p17
((lp18
(lp19
S'epoch'
p20
ag0
(cdigits.model.tasks.train
NetworkOutput
p21
c__builtin__
tuple
p22
(S'Epoch'
p23
(lp24
F1.0
aF2.0
aF3.0
aF4.0
aF5.0
aF6.0
aF7.0
aF8.0
aF9.0
aF10.0
aF11.0
aF12.0
aF13.0
aF14.0
aF15.0
aF16.0
aF17.0
aF18.0
aF19.0
aF20.0
aF21.0
aF22.0
aF23.0
aF24.0
aF25.0
aF26.0
aF27.0
aF28.0
aF29.0
aF30.0
aF31.0
aF32.0
aF33.0
aF34.0
aF35.0
aF36.0
aF37.0
aF38.0
aF39.0
aF40.0
aF41.0
aF42.0
aF43.0
aF44.0
aF45.0
aF46.0
aF47.0
aF48.0
aF49.0
aF50.0
aF51.0
aF52.0
aF53.0
aF54.0
aF55.0
aF56.0
aF57.0
aF58.0
aF59.0
aF60.0
aF61.0
aF62.0
aF63.0
aF64.0
aF65.0
aF66.0
aF67.0
aF68.0
aF69.0
aF70.0
aF71.0
aF72.0
aF73.0
aF74.0
aF75.0
aF76.0
aF77.0
aF78.0
aF79.0
aF80.0
aF81.0
aF82.0
aF83.0
aF84.0
aF85.0
aF86.0
aF87.0
aF88.0
aF89.0
aF90.0
aF91.0
aF92.0
aF93.0
aF94.0
aF95.0
aF96.0
aF97.0
aF98.0
aF99.0
aF100.0
aF101.0
aF102.0
aF103.0
aF104.0
aF105.0
aF106.0
aF107.0
aF108.0
aF109.0
aF110.0
aF111.0
aF112.0
aF113.0
aF114.0
aF115.0
aF116.0
aF117.0
aF118.0
aF119.0
aF120.0
aF121.0
aF122.0
aF123.0
aF124.0
aF125.0
aF126.0
aF127.0
aF128.0
aF129.0
aF130.0
aF131.0
aF132.0
aF133.0
aF134.0
aF135.0
aF136.0
aF137.0
aF138.0
aF139.0
aF140.0
aF141.0
aF142.0
aF143.0
aF144.0
aF145.0
aF146.0
aF147.0
aF148.0
aF149.0
aF150.0
aF151.0
aF152.0
aF153.0
aF154.0
aF155.0
aF156.0
aF157.0
aF158.0
aF159.0
aF160.0
aF161.0
aF162.0
aF163.0
aF164.0
aF165.0
aF166.0
aF167.0
aF168.0
aF169.0
aF170.0
aF171.0
aF172.0
aF173.0
aF174.0
aF175.0
aF176.0
aF177.0
aF178.0
aF179.0
aF180.0
aF181.0
aF182.0
aF183.0
aF184.0
aF185.0
aF186.0
aF187.0
aF188.0
aF189.0
aF190.0
aF191.0
aF192.0
aF193.0
aF194.0
aF195.0
aF196.0
aF197.0
aF198.0
aF199.0
aF200.0
aF201.0
aF202.0
aF203.0
aF204.0
aF205.0
aF206.0
aF207.0
aF208.0
aF209.0
aF210.0
aF211.0
aF212.0
aF213.0
aF214.0
aF215.0
aF216.0
aF217.0
aF218.0
aF219.0
aF220.0
aF221.0
aF222.0
aF223.0
aF224.0
aF225.0
aF226.0
aF227.0
aF228.0
aF229.0
aF230.0
aF231.0
aF232.0
aF233.0
aF234.0
aF235.0
aF236.0
aF237.0
aF238.0
aF239.0
aF240.0
aF241.0
aF242.0
aF243.0
aF244.0
aF245.0
aF246.0
aF247.0
aF248.0
aF249.0
aF250.0
aF251.0
aF252.0
aF253.0
aF254.0
aF255.0
aF256.0
aF257.0
aF258.0
aF259.0
aF260.0
aF261.0
aF262.0
aF263.0
aF264.0
aF265.0
aF266.0
aF267.0
aF268.0
aF269.0
aF270.0
aF271.0
aF272.0
aF273.0
aF274.0
aF275.0
aF276.0
aF277.0
aF278.0
aF279.0
aF280.0
aF281.0
aF282.0
aF283.0
aF284.0
aF285.0
aF286.0
aF287.0
aF288.0
aF289.0
aF290.0
aF291.0
aF292.0
aF293.0
aF294.0
aF295.0
aF296.0
aF297.0
aF298.0
aF299.0
aF300.0
aF301.0
aF302.0
aF303.0
aF304.0
aF305.0
aF306.0
aF307.0
aF308.0
aF309.0
aF310.0
aF311.0
aF312.0
aF313.0
aF314.0
aF315.0
aF316.0
aF317.0
aF318.0
aF319.0
aF320.0
aF321.0
aF322.0
aF323.0
aF324.0
aF325.0
aF326.0
aF327.0
aF328.0
aF329.0
aF330.0
aF331.0
aF332.0
aF333.0
aF334.0
aF335.0
aF336.0
aF337.0
aF338.0
aF339.0
aF340.0
aF341.0
aF342.0
aF343.0
aF344.0
aF345.0
aF346.0
aF347.0
aF348.0
aF349.0
aF350.0
aF351.0
aF352.0
aF353.0
aF354.0
aF355.0
aF356.0
aF357.0
aF358.0
aF359.0
aF360.0
aF361.0
aF362.0
aF363.0
aF364.0
aF365.0
aF366.0
aF367.0
aF368.0
aF369.0
aF370.0
aF371.0
aF372.0
aF373.0
aF374.0
aF375.0
aF376.0
aF377.0
aF378.0
aF379.0
aF380.0
aF381.0
aF382.0
aF383.0
aF384.0
aF385.0
aF386.0
aF387.0
aF388.0
aF389.0
aF390.0
aF391.0
aF392.0
aF393.0
aF394.0
aF395.0
aF396.0
aF397.0
aF398.0
aF399.0
aF400.0
aF401.0
aF402.0
aF403.0
aF404.0
aF405.0
aF406.0
aF407.0
aF408.0
aF409.0
aF410.0
aF411.0
aF412.0
aF413.0
aF414.0
aF415.0
aF416.0
aF417.0
aF418.0
aF419.0
aF420.0
aF421.0
aF422.0
aF423.0
aF424.0
aF425.0
aF426.0
aF427.0
aF428.0
aF429.0
aF430.0
aF431.0
aF432.0
aF433.0
aF434.0
aF435.0
aF436.0
aF437.0
aF438.0
aF439.0
aF440.0
aF441.0
aF442.0
aF443.0
aF444.0
aF445.0
aF446.0
aF447.0
aF448.0
aF449.0
aF450.0
aF451.0
aF452.0
aF453.0
aF454.0
aF455.0
aF456.0
aF457.0
aF458.0
aF459.0
aF460.0
aF461.0
aF462.0
aF463.0
aF464.0
aF465.0
aF466.0
aF467.0
aF468.0
aF469.0
aF470.0
aF471.0
aF472.0
aF473.0
aF474.0
aF475.0
aF476.0
aF477.0
aF478.0
aF479.0
aF480.0
aF481.0
aF482.0
aF483.0
aF484.0
aF485.0
aF486.0
aF487.0
aF488.0
aF489.0
aF490.0
aF491.0
aF492.0
aF493.0
aF494.0
aF495.0
aF496.0
aF497.0
aF498.0
aF499.0
aF500.0
atp25
tp26
Rp27
aa(lp28
S'loss'
p29
ag0
(g21
g22
(S'?'
p30
(lp31
F11.968787
aF11.74183
aF11.272429
aF10.357812
aF9.379642
aF8.457173
aF7.986148
aF7.864499
aF7.382222
aF6.648874
aF5.988883
aF5.396476
aF4.862289
aF4.760952
aF4.909708
aF4.423093
aF3.985787
aF3.864439
aF3.484078
aF3.141723
aF3.533403
aF3.419015
aF5.817804
aF5.242523
aF4.723789
aF4.25842
aF3.857168
aF3.478584
aF3.136826
aF2.852708
aF2.596852
aF2.421836
aF2.182654
aF1.967018
aF1.772436
aF1.597703
aF1.760381
aF1.630615
aF1.469213
aF1.323782
aF1.431209
aF1.289406
aF1.16183
aF1.046847
aF0.943398
aF0.850256
aF0.766378
aF0.690907
aF0.645135
aF0.803206
aF0.723821
aF0.733906
aF0.661443
aF0.596164
aF0.53753
aF0.484591
aF0.437022
aF0.472792
aF0.426269
aF0.384388
aF0.346551
aF0.312525
aF0.281928
aF0.254373
aF0.229659
aF0.375722
aF0.33883
aF0.305655
aF0.27586
aF0.248952
aF0.241769
aF0.318385
aF0.365435
aF0.329516
aF0.317434
aF0.309252
aF0.287471
aF0.259372
aF0.234025
aF0.211213
aF0.190658
aF0.172221
aF0.155653
aF0.140596
aF0.127155
aF0.201875
aF0.182147
aF0.271375
aF0.244828
aF0.220868
aF0.240445
aF0.35997
aF0.441731
aF0.533215
aF0.480431
aF0.432978
aF0.390321
aF0.352057
aF0.317582
aF0.286494
aF0.258674
aF0.461543
aF0.416373
aF0.375757
aF0.339368
aF0.306545
aF0.297865
aF0.269087
aF0.243094
aF0.219411
aF0.283943
aF0.453024
aF0.408524
aF0.368323
aF0.332333
aF0.315992
aF0.285192
aF0.257568
aF0.232578
aF0.209923
aF1.521452
aF1.370379
aF1.235428
aF1.152928
aF1.187178
aF2.097623
aF1.890617
aF1.703224
aF1.846816
aF1.663866
aF1.49983
aF1.352054
aF1.21892
aF1.099257
aF0.991847
aF0.894445
aF0.806081
aF0.726291
aF1.01557
aF0.914719
aF0.823962
aF0.74252
aF0.669649
aF0.604333
aF0.545573
aF0.492518
aF0.444547
aF0.43957
aF0.39633
aF0.887492
aF0.882293
aF0.794446
aF1.297824
aF1.168607
aF1.052549
aF1.671616
aF1.505442
aF2.025901
aF2.099475
aF1.890656
aF1.702976
aF1.534564
aF1.383248
aF1.247002
aF1.212002
aF1.092461
aF1.376438
aF1.244889
aF1.121122
aF1.00958
aF1.220781
aF1.099002
aF0.98933
aF1.512763
aF1.361997
aF1.264143
aF1.138818
aF1.02623
aF0.924971
aF0.833804
aF0.751487
aF0.681022
aF0.613392
aF0.614628
aF0.553349
aF0.498116
aF0.448445
aF0.657354
aF0.688637
aF0.899957
aF0.845131
aF0.761081
aF0.855841
aF0.770838
aF0.694423
aF0.625677
aF0.563782
aF0.507995
aF0.457671
aF0.412294
aF0.450111
aF0.405461
aF0.365336
aF0.329248
aF1.622121
aF1.465428
aF1.33105
aF1.209183
aF1.095577
aF1.119352
aF1.034452
aF0.934168
aF0.841966
aF0.759739
aF0.687249
aF0.648317
aF0.604137
aF0.545009
aF0.492252
aF0.605043
aF0.545364
aF0.491271
aF0.815869
aF0.735672
aF0.663407
aF0.598036
aF0.632394
aF0.570434
aF1.368751
aF1.423656
aF1.283711
aF1.157982
aF1.044669
aF1.217976
aF1.11975
aF1.010163
aF0.991585
aF1.270611
aF1.144942
aF1.031808
aF0.929853
aF0.837957
aF1.083452
aF1.04766
aF0.943796
aF0.8502
aF0.765885
aF0.689988
aF0.621633
aF0.640246
aF0.57665
aF0.519353
aF0.49072
aF0.442005
aF0.398095
aF0.358563
aF0.323029
aF0.310091
aF0.279336
aF0.25162
aF0.226659
aF0.204189
aF0.183925
aF0.165662
aF0.149218
aF0.134422
aF0.121104
aF0.29147
aF0.262439
aF0.236376
aF0.212963
aF0.19191
aF0.172972
aF0.155934
aF0.140591
aF0.126724
aF0.114201
aF0.102894
aF0.092705
aF0.083505
aF0.121536
aF2.091985
aF1.883151
aF2.020389
aF1.819999
aF1.640024
aF1.478267
aF1.332721
aF1.224322
aF1.119869
aF1.065229
aF0.959216
aF0.863595
aF0.821687
aF0.739727
aF1.061828
aF0.956005
aF0.860733
aF0.818809
aF0.737207
aF0.663742
aF0.67003
aF0.603185
aF0.543012
aF0.502005
aF0.55972
aF0.546602
aF0.49207
aF0.442969
aF0.451854
aF0.406796
aF0.366229
aF0.542511
aF0.488344
aF0.439606
aF0.39575
aF0.356291
aF0.320795
aF0.3247
aF0.322262
aF0.449697
aF0.404864
aF0.384363
aF0.346091
aF0.311649
aF0.280656
aF0.252765
aF0.227645
aF0.205016
aF0.18463
aF0.199527
aF0.179649
aF0.161752
aF0.145643
aF0.158487
aF0.142678
aF0.128463
aF0.115666
aF0.104147
aF0.232122
aF0.209122
aF0.260255
aF0.234649
aF0.21153
aF0.325917
aF0.293888
aF0.462603
aF0.416814
aF0.375493
aF0.350989
aF0.323759
aF0.316843
aF0.288645
aF0.275225
aF0.247959
aF0.223409
aF0.201262
aF0.181305
aF0.163339
aF0.175981
aF0.158541
aF0.235896
aF0.21244
aF0.191336
aF0.172331
aF0.297345
aF0.267715
aF0.464531
aF0.418203
aF0.376529
aF0.339061
aF0.305373
aF0.275093
aF0.270518
aF0.243712
aF0.21956
aF0.197789
aF0.178147
aF0.16043
aF0.144461
aF0.130079
aF0.604385
aF0.544142
aF0.490097
aF0.441609
aF0.398074
aF0.358967
aF0.323746
aF0.414634
aF0.412688
aF0.42548
aF0.383076
aF0.777402
aF0.699825
aF0.630043
aF0.696137
aF0.631994
aF0.569125
aF0.51253
aF0.461561
aF0.479961
aF0.442747
aF0.398616
aF0.358839
aF0.32305
aF0.415489
aF0.374041
aF0.336719
aF0.303136
aF0.272906
aF0.245721
aF0.221245
aF0.485625
aF0.437125
aF0.681925
aF0.840427
aF0.75665
aF0.685355
aF0.617384
aF1.451652
aF1.551524
aF1.397185
aF1.258391
aF1.133473
aF1.021094
aF0.919994
aF0.828932
aF0.760022
aF0.684592
aF0.739624
aF0.76813
aF0.69162
aF0.622683
aF0.560587
aF0.562012
aF0.506087
aF0.467787
aF0.566982
aF0.510578
aF0.477388
aF0.436597
aF0.393145
aF0.354028
aF0.318814
aF0.287087
aF0.258499
aF0.232779
aF0.209625
aF0.188789
aF0.170073
aF0.176011
aF0.158538
aF0.239102
aF0.215316
aF0.193872
aF0.180689
aF0.162704
aF0.160698
aF0.144724
aF0.130336
aF0.117399
aF0.105736
aF0.095221
aF0.085774
aF0.077258
aF0.069588
aF0.25048
aF0.225504
aF0.203062
aF0.182913
aF0.164815
aF0.148561
aF0.133926
aF0.120743
aF0.733069
aF0.664716
aF0.598396
aF0.538727
aF0.485048
aF0.440821
aF0.39698
aF0.567305
aF0.510815
aF0.459956
aF0.414174
aF0.689315
aF0.620627
aF0.558853
aF0.517793
aF0.65788
aF0.592421
aF0.533506
aF0.480441
aF0.432636
aF0.389561
aF0.350735
aF0.315757
aF0.28427
aF0.25592
aF0.230403
atp32
tp33
Rp34
aatp35
Rp36
sS'loaded_snapshot_epoch'
p37
NsS'pretrained_model'
p38
NsS'deploy_file'
p39
S'deploy.prototxt'
p40
sS'gpu_count'
p41
I1
sS'rms_decay'
p42
F0.99
sS'job_id'
p43
S'20180102-164527-7d39'
p44
sS'max_iter_num'
p45
I500
sS'parents'
p46
NsS'caffe_flavor'
p47
S'BVLC'
p48
sS'train_server_port'
p49
V955
p50
sS'receiving_train_output'
p51
I00
sS'current_epoch'
p52
F500.0
sS'random_seed'
p53
NsS'progress'
p54
F1.0
sS'current_resources'
p55
NsS'train_server_ip'
p56
V118.201.243.15
p57
sS'exception'
p58
NsS'selected_gpus'
p59
NsS'solver'
p60
ccaffe_pb2
SolverParameter
p61
(tRp62
(dp63
S'serialized'
p64
S'8\xf4\x03p\x01z\x08snapshot'
p65
sbsS'framework_id'
p66
S'caffe'
p67
sS'last_train_update'
p68
F1514940396.618853
sS'train_val_file'
p69
S'train_val.prototxt'
p70
sS'caffe_version'
p71
S'1.0.0-rc3'
p72
sS'solver_file'
p73
S'solver.prototxt'
p74
sS'snapshot_interval'
p75
F1.0
sS'val_outputs'
p76
g17
((lp77
tp78
Rp79
sS'current_iteration'
p80
I500
sS'crop_size'
p81
NsS'traces_interval'
p82
I0
sS'train_epochs'
p83
I500
sS'data_dir'
p84
S'/home/wills/Projects/digits-ssd/digits/jobs/20180102-164446-b896'
p85
sS'network'
p86
ccaffe_pb2
NetParameter
p87
(tRp88
(dp89
g64
S'\n\x1dVGG_VOC0712_SSD_300x300_train\xa2\x06\x89\x04\n\x04data\x12\rAnnotatedData"\x04data"\x05labelB\x02\x08\x00\xa2\x06s\x10\x01-\x00\x00\xd0B-\x00\x00\xeaB-\x00\x00\xf6BB\x17\r\x00\x00\x80?\x10\x01\x18\xac\x02 \xac\x028\x018\x028\x038\x048\x05R\x02\x08\x00j7\r\x00\x00\x00?\x15\x00\x00\x00B\x1d\x00\x00\x00?%\x00\x00\x00?-\x00\x00\xc0?5\x00\x00\x00?=\x00\x00\x90AE\x00\x00\x00?M\x00\x00\x00?U\x00\x00\xc0?]\x00\x00\x00\x00r\n\r\x00\x00\x00?\x15\x00\x00\x80@\xda\x06K\nE/home/wills/Projects/caffe-ssd/examples/VOC0712/VOC0712_trainval_lmdb  @\x01\xc2\x0c\x9b\x02\n\x04 \x01(\x01\n!\x12\x14\r\x9a\x99\x99>\x15\x00\x00\x80?\x1d\x00\x00\x00?%\x00\x00\x00@\x1a\x05\r\xcd\xcc\xcc= \x01(2\n!\x12\x14\r\x9a\x99\x99>\x15\x00\x00\x80?\x1d\x00\x00\x00?%\x00\x00\x00@\x1a\x05\r\x9a\x99\x99> \x01(2\n!\x12\x14\r\x9a\x99\x99>\x15\x00\x00\x80?\x1d\x00\x00\x00?%\x00\x00\x00@\x1a\x05\r\x00\x00\x00? \x01(2\n!\x12\x14\r\x9a\x99\x99>\x15\x00\x00\x80?\x1d\x00\x00\x00?%\x00\x00\x00@\x1a\x05\r333? \x01(2\n!\x12\x14\r\x9a\x99\x99>\x15\x00\x00\x80?\x1d\x00\x00\x00?%\x00\x00\x00@\x1a\x05\rfff? \x01(2\n!\x12\x14\r\x9a\x99\x99>\x15\x00\x00\x80?\x1d\x00\x00\x00?%\x00\x00\x00@\x1a\x05\x15\x00\x00\x80? \x01(2\x12A/home/wills/Projects/caffe-ssd/data/VOC0712/labelmap_voc.prototxt\xa2\x06a\n\x07conv1_1\x12\x0bConvolution\x1a\x04data"\x07conv1_12\n\x1d\x00\x00\x80?%\x00\x00\x80?2\n\x1d\x00\x00\x00@%\x00\x00\x00\x00\xd2\x06!\x08@\x18\x01 \x03:\x08\n\x06xavierB\x0f\n\x08constant\x15\x00\x00\x00\x00\xa2\x06!\n\x07relu1_1\x12\x04ReLU\x1a\x07conv1_1"\x07conv1_1\xa2\x06d\n\x07conv1_2\x12\x0bConvolution\x1a\x07conv1_1"\x07conv1_22\n\x1d\x00\x00\x80?%\x00\x00\x80?2\n\x1d\x00\x00\x00@%\x00\x00\x00\x00\xd2\x06!\x08@\x18\x01 \x03:\x08\n\x06xavierB\x0f\n\x08constant\x15\x00\x00\x00\x00\xa2\x06!\n\x07relu1_2\x12\x04ReLU\x1a\x07conv1_2"\x07conv1_2\xa2\x06)\n\x05pool1\x12\x07Pooling\x1a\x07conv1_2"\x05pool1\xca\x07\x06\x08\x00\x10\x02\x18\x02\xa2\x06c\n\x07conv2_1\x12\x0bConvolution\x1a\x05pool1"\x07conv2_12\n\x1d\x00\x00\x80?%\x00\x00\x80?2\n\x1d\x00\x00\x00@%\x00\x00\x00\x00\xd2\x06"\x08\x80\x01\x18\x01 \x03:\x08\n\x06xavierB\x0f\n\x08constant\x15\x00\x00\x00\x00\xa2\x06!\n\x07relu2_1\x12\x04ReLU\x1a\x07conv2_1"\x07conv2_1\xa2\x06e\n\x07conv2_2\x12\x0bConvolution\x1a\x07conv2_1"\x07conv2_22\n\x1d\x00\x00\x80?%\x00\x00\x80?2\n\x1d\x00\x00\x00@%\x00\x00\x00\x00\xd2\x06"\x08\x80\x01\x18\x01 \x03:\x08\n\x06xavierB\x0f\n\x08constant\x15\x00\x00\x00\x00\xa2\x06!\n\x07relu2_2\x12\x04ReLU\x1a\x07conv2_2"\x07conv2_2\xa2\x06)\n\x05pool2\x12\x07Pooling\x1a\x07conv2_2"\x05pool2\xca\x07\x06\x08\x00\x10\x02\x18\x02\xa2\x06c\n\x07conv3_1\x12\x0bConvolution\x1a\x05pool2"\x07conv3_12\n\x1d\x00\x00\x80?%\x00\x00\x80?2\n\x1d\x00\x00\x00@%\x00\x00\x00\x00\xd2\x06"\x08\x80\x02\x18\x01 \x03:\x08\n\x06xavierB\x0f\n\x08constant\x15\x00\x00\x00\x00\xa2\x06!\n\x07relu3_1\x12\x04ReLU\x1a\x07conv3_1"\x07conv3_1\xa2\x06e\n\x07conv3_2\x12\x0bConvolution\x1a\x07conv3_1"\x07conv3_22\n\x1d\x00\x00\x80?%\x00\x00\x80?2\n\x1d\x00\x00\x00@%\x00\x00\x00\x00\xd2\x06"\x08\x80\x02\x18\x01 \x03:\x08\n\x06xavierB\x0f\n\x08constant\x15\x00\x00\x00\x00\xa2\x06!\n\x07relu3_2\x12\x04ReLU\x1a\x07conv3_2"\x07conv3_2\xa2\x06e\n\x07conv3_3\x12\x0bConvolution\x1a\x07conv3_2"\x07conv3_32\n\x1d\x00\x00\x80?%\x00\x00\x80?2\n\x1d\x00\x00\x00@%\x00\x00\x00\x00\xd2\x06"\x08\x80\x02\x18\x01 \x03:\x08\n\x06xavierB\x0f\n\x08constant\x15\x00\x00\x00\x00\xa2\x06!\n\x07relu3_3\x12\x04ReLU\x1a\x07conv3_3"\x07conv3_3\xa2\x06)\n\x05pool3\x12\x07Pooling\x1a\x07conv3_3"\x05pool3\xca\x07\x06\x08\x00\x10\x02\x18\x02\xa2\x06c\n\x07conv4_1\x12\x0bConvolution\x1a\x05pool3"\x07conv4_12\n\x1d\x00\x00\x80?%\x00\x00\x80?2\n\x1d\x00\x00\x00@%\x00\x00\x00\x00\xd2\x06"\x08\x80\x04\x18\x01 \x03:\x08\n\x06xavierB\x0f\n\x08constant\x15\x00\x00\x00\x00\xa2\x06!\n\x07relu4_1\x12\x04ReLU\x1a\x07conv4_1"\x07conv4_1\xa2\x06e\n\x07conv4_2\x12\x0bConvolution\x1a\x07conv4_1"\x07conv4_22\n\x1d\x00\x00\x80?%\x00\x00\x80?2\n\x1d\x00\x00\x00@%\x00\x00\x00\x00\xd2\x06"\x08\x80\x04\x18\x01 \x03:\x08\n\x06xavierB\x0f\n\x08constant\x15\x00\x00\x00\x00\xa2\x06!\n\x07relu4_2\x12\x04ReLU\x1a\x07conv4_2"\x07conv4_2\xa2\x06e\n\x07conv4_3\x12\x0bConvolution\x1a\x07conv4_2"\x07conv4_32\n\x1d\x00\x00\x80?%\x00\x00\x80?2\n\x1d\x00\x00\x00@%\x00\x00\x00\x00\xd2\x06"\x08\x80\x04\x18\x01 \x03:\x08\n\x06xavierB\x0f\n\x08constant\x15\x00\x00\x00\x00\xa2\x06!\n\x07relu4_3\x12\x04ReLU\x1a\x07conv4_3"\x07conv4_3\xa2\x06)\n\x05pool4\x12\x07Pooling\x1a\x07conv4_3"\x05pool4\xca\x07\x06\x08\x00\x10\x02\x18\x02\xa2\x06f\n\x07conv5_1\x12\x0bConvolution\x1a\x05pool4"\x07conv5_12\n\x1d\x00\x00\x80?%\x00\x00\x80?2\n\x1d\x00\x00\x00@%\x00\x00\x00\x00\xd2\x06%\x08\x80\x04\x18\x01 \x03:\x08\n\x06xavierB\x0f\n\x08constant\x15\x00\x00\x00\x00\x90\x01\x01\xa2\x06!\n\x07relu5_1\x12\x04ReLU\x1a\x07conv5_1"\x07conv5_1\xa2\x06h\n\x07conv5_2\x12\x0bConvolution\x1a\x07conv5_1"\x07conv5_22\n\x1d\x00\x00\x80?%\x00\x00\x80?2\n\x1d\x00\x00\x00@%\x00\x00\x00\x00\xd2\x06%\x08\x80\x04\x18\x01 \x03:\x08\n\x06xavierB\x0f\n\x08constant\x15\x00\x00\x00\x00\x90\x01\x01\xa2\x06!\n\x07relu5_2\x12\x04ReLU\x1a\x07conv5_2"\x07conv5_2\xa2\x06h\n\x07conv5_3\x12\x0bConvolution\x1a\x07conv5_2"\x07conv5_32\n\x1d\x00\x00\x80?%\x00\x00\x80?2\n\x1d\x00\x00\x00@%\x00\x00\x00\x00\xd2\x06%\x08\x80\x04\x18\x01 \x03:\x08\n\x06xavierB\x0f\n\x08constant\x15\x00\x00\x00\x00\x90\x01\x01\xa2\x06!\n\x07relu5_3\x12\x04ReLU\x1a\x07conv5_3"\x07conv5_3\xa2\x06+\n\x05pool5\x12\x07Pooling\x1a\x07conv5_3"\x05pool5\xca\x07\x08\x08\x00\x10\x03\x18\x01 \x01\xa2\x06^\n\x03fc6\x12\x0bConvolution\x1a\x05pool5"\x03fc62\n\x1d\x00\x00\x80?%\x00\x00\x80?2\n\x1d\x00\x00\x00@%\x00\x00\x00\x00\xd2\x06%\x08\x80\x08\x18\x06 \x03:\x08\n\x06xavierB\x0f\n\x08constant\x15\x00\x00\x00\x00\x90\x01\x06\xa2\x06\x17\n\x05relu6\x12\x04ReLU\x1a\x03fc6"\x03fc6\xa2\x06W\n\x03fc7\x12\x0bConvolution\x1a\x03fc6"\x03fc72\n\x1d\x00\x00\x80?%\x00\x00\x80?2\n\x1d\x00\x00\x00@%\x00\x00\x00\x00\xd2\x06 \x08\x80\x08 \x01:\x08\n\x06xavierB\x0f\n\x08constant\x15\x00\x00\x00\x00\xa2\x06\x17\n\x05relu7\x12\x04ReLU\x1a\x03fc7"\x03fc7\xa2\x06c\n\x07conv6_1\x12\x0bConvolution\x1a\x03fc7"\x07conv6_12\n\x1d\x00\x00\x80?%\x00\x00\x80?2\n\x1d\x00\x00\x00@%\x00\x00\x00\x00\xd2\x06$\x08\x80\x02\x18\x00 \x010\x01:\x08\n\x06xavierB\x0f\n\x08constant\x15\x00\x00\x00\x00\xa2\x06&\n\x0cconv6_1_relu\x12\x04ReLU\x1a\x07conv6_1"\x07conv6_1\xa2\x06g\n\x07conv6_2\x12\x0bConvolution\x1a\x07conv6_1"\x07conv6_22\n\x1d\x00\x00\x80?%\x00\x00\x80?2\n\x1d\x00\x00\x00@%\x00\x00\x00\x00\xd2\x06$\x08\x80\x04\x18\x01 \x030\x02:\x08\n\x06xavierB\x0f\n\x08constant\x15\x00\x00\x00\x00\xa2\x06&\n\x0cconv6_2_relu\x12\x04ReLU\x1a\x07conv6_2"\x07conv6_2\xa2\x06g\n\x07conv7_1\x12\x0bConvolution\x1a\x07conv6_2"\x07conv7_12\n\x1d\x00\x00\x80?%\x00\x00\x80?2\n\x1d\x00\x00\x00@%\x00\x00\x00\x00\xd2\x06$\x08\x80\x01\x18\x00 \x010\x01:\x08\n\x06xavierB\x0f\n\x08constant\x15\x00\x00\x00\x00\xa2\x06&\n\x0cconv7_1_relu\x12\x04ReLU\x1a\x07conv7_1"\x07conv7_1\xa2\x06g\n\x07conv7_2\x12\x0bConvolution\x1a\x07conv7_1"\x07conv7_22\n\x1d\x00\x00\x80?%\x00\x00\x80?2\n\x1d\x00\x00\x00@%\x00\x00\x00\x00\xd2\x06$\x08\x80\x02\x18\x01 \x030\x02:\x08\n\x06xavierB\x0f\n\x08constant\x15\x00\x00\x00\x00\xa2\x06&\n\x0cconv7_2_relu\x12\x04ReLU\x1a\x07conv7_2"\x07conv7_2\xa2\x06g\n\x07conv8_1\x12\x0bConvolution\x1a\x07conv7_2"\x07conv8_12\n\x1d\x00\x00\x80?%\x00\x00\x80?2\n\x1d\x00\x00\x00@%\x00\x00\x00\x00\xd2\x06$\x08\x80\x01\x18\x00 \x010\x01:\x08\n\x06xavierB\x0f\n\x08constant\x15\x00\x00\x00\x00\xa2\x06&\n\x0cconv8_1_relu\x12\x04ReLU\x1a\x07conv8_1"\x07conv8_1\xa2\x06g\n\x07conv8_2\x12\x0bConvolution\x1a\x07conv8_1"\x07conv8_22\n\x1d\x00\x00\x80?%\x00\x00\x80?2\n\x1d\x00\x00\x00@%\x00\x00\x00\x00\xd2\x06$\x08\x80\x02\x18\x00 \x030\x01:\x08\n\x06xavierB\x0f\n\x08constant\x15\x00\x00\x00\x00\xa2\x06&\n\x0cconv8_2_relu\x12\x04ReLU\x1a\x07conv8_2"\x07conv8_2\xa2\x06g\n\x07conv9_1\x12\x0bConvolution\x1a\x07conv8_2"\x07conv9_12\n\x1d\x00\x00\x80?%\x00\x00\x80?2\n\x1d\x00\x00\x00@%\x00\x00\x00\x00\xd2\x06$\x08\x80\x01\x18\x00 \x010\x01:\x08\n\x06xavierB\x0f\n\x08constant\x15\x00\x00\x00\x00\xa2\x06&\n\x0cconv9_1_relu\x12\x04ReLU\x1a\x07conv9_1"\x07conv9_1\xa2\x06g\n\x07conv9_2\x12\x0bConvolution\x1a\x07conv9_1"\x07conv9_22\n\x1d\x00\x00\x80?%\x00\x00\x80?2\n\x1d\x00\x00\x00@%\x00\x00\x00\x00\xd2\x06$\x08\x80\x02\x18\x00 \x030\x01:\x08\n\x06xavierB\x0f\n\x08constant\x15\x00\x00\x00\x00\xa2\x06&\n\x0cconv9_2_relu\x12\x04ReLU\x1a\x07conv9_2"\x07conv9_2\xa2\x06H\n\x0cconv4_3_norm\x12\tNormalize\x1a\x07conv4_3"\x0cconv4_3_norm\xf2\x0c\x15\x08\x00\x12\x0f\n\x08constant\x15\x00\x00\xa0A\x18\x00\xa2\x06\x87\x01\n\x15conv4_3_norm_mbox_loc\x12\x0bConvolution\x1a\x0cconv4_3_norm"\x15conv4_3_norm_mbox_loc2\n\x1d\x00\x00\x80?%\x00\x00\x80?2\n\x1d\x00\x00\x00@%\x00\x00\x00\x00\xd2\x06#\x08\x10\x18\x01 \x030\x01:\x08\n\x06xavierB\x0f\n\x08constant\x15\x00\x00\x00\x00\xa2\x06c\n\x1aconv4_3_norm_mbox_loc_perm\x12\x07Permute\x1a\x15conv4_3_norm_mbox_loc"\x1aconv4_3_norm_mbox_loc_perm\xd2\x0c\x08\x08\x00\x08\x02\x08\x03\x08\x01\xa2\x06b\n\x1aconv4_3_norm_mbox_loc_flat\x12\x07Flatten\x1a\x1aconv4_3_norm_mbox_loc_perm"\x1aconv4_3_norm_mbox_loc_flat\xba\x08\x02\x08\x01\xa2\x06\x89\x01\n\x16conv4_3_norm_mbox_conf\x12\x0bConvolution\x1a\x0cconv4_3_norm"\x16conv4_3_norm_mbox_conf2\n\x1d\x00\x00\x80?%\x00\x00\x80?2\n\x1d\x00\x00\x00@%\x00\x00\x00\x00\xd2\x06#\x08T\x18\x01 \x030\x01:\x08\n\x06xavierB\x0f\n\x08constant\x15\x00\x00\x00\x00\xa2\x06f\n\x1bconv4_3_norm_mbox_conf_perm\x12\x07Permute\x1a\x16conv4_3_norm_mbox_conf"\x1bconv4_3_norm_mbox_conf_perm\xd2\x0c\x08\x08\x00\x08\x02\x08\x03\x08\x01\xa2\x06e\n\x1bconv4_3_norm_mbox_conf_flat\x12\x07Flatten\x1a\x1bconv4_3_norm_mbox_conf_perm"\x1bconv4_3_norm_mbox_conf_flat\xba\x08\x02\x08\x01\xa2\x06\x8a\x01\n\x1aconv4_3_norm_mbox_priorbox\x12\x08PriorBox\x1a\x0cconv4_3_norm\x1a\x04data"\x1aconv4_3_norm_mbox_priorbox\xda\x0c1\r\x00\x00\xf0A\x15\x00\x00pB\x1d\x00\x00\x00@ \x01(\x005\xcd\xcc\xcc=5\xcd\xcc\xcc=5\xcd\xccL>5\xcd\xccL>U\x00\x00\x00Am\x00\x00\x00?\xa2\x06l\n\x0cfc7_mbox_loc\x12\x0bConvolution\x1a\x03fc7"\x0cfc7_mbox_loc2\n\x1d\x00\x00\x80?%\x00\x00\x80?2\n\x1d\x00\x00\x00@%\x00\x00\x00\x00\xd2\x06#\x08\x18\x18\x01 \x030\x01:\x08\n\x06xavierB\x0f\n\x08constant\x15\x00\x00\x00\x00\xa2\x06H\n\x11fc7_mbox_loc_perm\x12\x07Permute\x1a\x0cfc7_mbox_loc"\x11fc7_mbox_loc_perm\xd2\x0c\x08\x08\x00\x08\x02\x08\x03\x08\x01\xa2\x06G\n\x11fc7_mbox_loc_flat\x12\x07Flatten\x1a\x11fc7_mbox_loc_perm"\x11fc7_mbox_loc_flat\xba\x08\x02\x08\x01\xa2\x06n\n\rfc7_mbox_conf\x12\x0bConvolution\x1a\x03fc7"\rfc7_mbox_conf2\n\x1d\x00\x00\x80?%\x00\x00\x80?2\n\x1d\x00\x00\x00@%\x00\x00\x00\x00\xd2\x06#\x08~\x18\x01 \x030\x01:\x08\n\x06xavierB\x0f\n\x08constant\x15\x00\x00\x00\x00\xa2\x06K\n\x12fc7_mbox_conf_perm\x12\x07Permute\x1a\rfc7_mbox_conf"\x12fc7_mbox_conf_perm\xd2\x0c\x08\x08\x00\x08\x02\x08\x03\x08\x01\xa2\x06J\n\x12fc7_mbox_conf_flat\x12\x07Flatten\x1a\x12fc7_mbox_conf_perm"\x12fc7_mbox_conf_flat\xba\x08\x02\x08\x01\xa2\x06t\n\x11fc7_mbox_priorbox\x12\x08PriorBox\x1a\x03fc7\x1a\x04data"\x11fc7_mbox_priorbox\xda\x0c6\r\x00\x00pB\x15\x00\x00\xdeB\x1d\x00\x00\x00@\x1d\x00\x00@@ \x01(\x005\xcd\xcc\xcc=5\xcd\xcc\xcc=5\xcd\xccL>5\xcd\xccL>U\x00\x00\x80Am\x00\x00\x00?\xa2\x06x\n\x10conv6_2_mbox_loc\x12\x0bConvolution\x1a\x07conv6_2"\x10conv6_2_mbox_loc2\n\x1d\x00\x00\x80?%\x00\x00\x80?2\n\x1d\x00\x00\x00@%\x00\x00\x00\x00\xd2\x06#\x08\x18\x18\x01 \x030\x01:\x08\n\x06xavierB\x0f\n\x08constant\x15\x00\x00\x00\x00\xa2\x06T\n\x15conv6_2_mbox_loc_perm\x12\x07Permute\x1a\x10conv6_2_mbox_loc"\x15conv6_2_mbox_loc_perm\xd2\x0c\x08\x08\x00\x08\x02\x08\x03\x08\x01\xa2\x06S\n\x15conv6_2_mbox_loc_flat\x12\x07Flatten\x1a\x15conv6_2_mbox_loc_perm"\x15conv6_2_mbox_loc_flat\xba\x08\x02\x08\x01\xa2\x06z\n\x11conv6_2_mbox_conf\x12\x0bConvolution\x1a\x07conv6_2"\x11conv6_2_mbox_conf2\n\x1d\x00\x00\x80?%\x00\x00\x80?2\n\x1d\x00\x00\x00@%\x00\x00\x00\x00\xd2\x06#\x08~\x18\x01 \x030\x01:\x08\n\x06xavierB\x0f\n\x08constant\x15\x00\x00\x00\x00\xa2\x06W\n\x16conv6_2_mbox_conf_perm\x12\x07Permute\x1a\x11conv6_2_mbox_conf"\x16conv6_2_mbox_conf_perm\xd2\x0c\x08\x08\x00\x08\x02\x08\x03\x08\x01\xa2\x06V\n\x16conv6_2_mbox_conf_flat\x12\x07Flatten\x1a\x16conv6_2_mbox_conf_perm"\x16conv6_2_mbox_conf_flat\xba\x08\x02\x08\x01\xa2\x06\x80\x01\n\x15conv6_2_mbox_priorbox\x12\x08PriorBox\x1a\x07conv6_2\x1a\x04data"\x15conv6_2_mbox_priorbox\xda\x0c6\r\x00\x00\xdeB\x15\x00\x00"C\x1d\x00\x00\x00@\x1d\x00\x00@@ \x01(\x005\xcd\xcc\xcc=5\xcd\xcc\xcc=5\xcd\xccL>5\xcd\xccL>U\x00\x00\x00Bm\x00\x00\x00?\xa2\x06x\n\x10conv7_2_mbox_loc\x12\x0bConvolution\x1a\x07conv7_2"\x10conv7_2_mbox_loc2\n\x1d\x00\x00\x80?%\x00\x00\x80?2\n\x1d\x00\x00\x00@%\x00\x00\x00\x00\xd2\x06#\x08\x18\x18\x01 \x030\x01:\x08\n\x06xavierB\x0f\n\x08constant\x15\x00\x00\x00\x00\xa2\x06T\n\x15conv7_2_mbox_loc_perm\x12\x07Permute\x1a\x10conv7_2_mbox_loc"\x15conv7_2_mbox_loc_perm\xd2\x0c\x08\x08\x00\x08\x02\x08\x03\x08\x01\xa2\x06S\n\x15conv7_2_mbox_loc_flat\x12\x07Flatten\x1a\x15conv7_2_mbox_loc_perm"\x15conv7_2_mbox_loc_flat\xba\x08\x02\x08\x01\xa2\x06z\n\x11conv7_2_mbox_conf\x12\x0bConvolution\x1a\x07conv7_2"\x11conv7_2_mbox_conf2\n\x1d\x00\x00\x80?%\x00\x00\x80?2\n\x1d\x00\x00\x00@%\x00\x00\x00\x00\xd2\x06#\x08~\x18\x01 \x030\x01:\x08\n\x06xavierB\x0f\n\x08constant\x15\x00\x00\x00\x00\xa2\x06W\n\x16conv7_2_mbox_conf_perm\x12\x07Permute\x1a\x11conv7_2_mbox_conf"\x16conv7_2_mbox_conf_perm\xd2\x0c\x08\x08\x00\x08\x02\x08\x03\x08\x01\xa2\x06V\n\x16conv7_2_mbox_conf_flat\x12\x07Flatten\x1a\x16conv7_2_mbox_conf_perm"\x16conv7_2_mbox_conf_flat\xba\x08\x02\x08\x01\xa2\x06\x80\x01\n\x15conv7_2_mbox_priorbox\x12\x08PriorBox\x1a\x07conv7_2\x1a\x04data"\x15conv7_2_mbox_priorbox\xda\x0c6\r\x00\x00"C\x15\x00\x00UC\x1d\x00\x00\x00@\x1d\x00\x00@@ \x01(\x005\xcd\xcc\xcc=5\xcd\xcc\xcc=5\xcd\xccL>5\xcd\xccL>U\x00\x00\x80Bm\x00\x00\x00?\xa2\x06x\n\x10conv8_2_mbox_loc\x12\x0bConvolution\x1a\x07conv8_2"\x10conv8_2_mbox_loc2\n\x1d\x00\x00\x80?%\x00\x00\x80?2\n\x1d\x00\x00\x00@%\x00\x00\x00\x00\xd2\x06#\x08\x10\x18\x01 \x030\x01:\x08\n\x06xavierB\x0f\n\x08constant\x15\x00\x00\x00\x00\xa2\x06T\n\x15conv8_2_mbox_loc_perm\x12\x07Permute\x1a\x10conv8_2_mbox_loc"\x15conv8_2_mbox_loc_perm\xd2\x0c\x08\x08\x00\x08\x02\x08\x03\x08\x01\xa2\x06S\n\x15conv8_2_mbox_loc_flat\x12\x07Flatten\x1a\x15conv8_2_mbox_loc_perm"\x15conv8_2_mbox_loc_flat\xba\x08\x02\x08\x01\xa2\x06z\n\x11conv8_2_mbox_conf\x12\x0bConvolution\x1a\x07conv8_2"\x11conv8_2_mbox_conf2\n\x1d\x00\x00\x80?%\x00\x00\x80?2\n\x1d\x00\x00\x00@%\x00\x00\x00\x00\xd2\x06#\x08T\x18\x01 \x030\x01:\x08\n\x06xavierB\x0f\n\x08constant\x15\x00\x00\x00\x00\xa2\x06W\n\x16conv8_2_mbox_conf_perm\x12\x07Permute\x1a\x11conv8_2_mbox_conf"\x16conv8_2_mbox_conf_perm\xd2\x0c\x08\x08\x00\x08\x02\x08\x03\x08\x01\xa2\x06V\n\x16conv8_2_mbox_conf_flat\x12\x07Flatten\x1a\x16conv8_2_mbox_conf_perm"\x16conv8_2_mbox_conf_flat\xba\x08\x02\x08\x01\xa2\x06{\n\x15conv8_2_mbox_priorbox\x12\x08PriorBox\x1a\x07conv8_2\x1a\x04data"\x15conv8_2_mbox_priorbox\xda\x0c1\r\x00\x00UC\x15\x00\x00\x84C\x1d\x00\x00\x00@ \x01(\x005\xcd\xcc\xcc=5\xcd\xcc\xcc=5\xcd\xccL>5\xcd\xccL>U\x00\x00\xc8Bm\x00\x00\x00?\xa2\x06x\n\x10conv9_2_mbox_loc\x12\x0bConvolution\x1a\x07conv9_2"\x10conv9_2_mbox_loc2\n\x1d\x00\x00\x80?%\x00\x00\x80?2\n\x1d\x00\x00\x00@%\x00\x00\x00\x00\xd2\x06#\x08\x10\x18\x01 \x030\x01:\x08\n\x06xavierB\x0f\n\x08constant\x15\x00\x00\x00\x00\xa2\x06T\n\x15conv9_2_mbox_loc_perm\x12\x07Permute\x1a\x10conv9_2_mbox_loc"\x15conv9_2_mbox_loc_perm\xd2\x0c\x08\x08\x00\x08\x02\x08\x03\x08\x01\xa2\x06S\n\x15conv9_2_mbox_loc_flat\x12\x07Flatten\x1a\x15conv9_2_mbox_loc_perm"\x15conv9_2_mbox_loc_flat\xba\x08\x02\x08\x01\xa2\x06z\n\x11conv9_2_mbox_conf\x12\x0bConvolution\x1a\x07conv9_2"\x11conv9_2_mbox_conf2\n\x1d\x00\x00\x80?%\x00\x00\x80?2\n\x1d\x00\x00\x00@%\x00\x00\x00\x00\xd2\x06#\x08T\x18\x01 \x030\x01:\x08\n\x06xavierB\x0f\n\x08constant\x15\x00\x00\x00\x00\xa2\x06W\n\x16conv9_2_mbox_conf_perm\x12\x07Permute\x1a\x11conv9_2_mbox_conf"\x16conv9_2_mbox_conf_perm\xd2\x0c\x08\x08\x00\x08\x02\x08\x03\x08\x01\xa2\x06V\n\x16conv9_2_mbox_conf_flat\x12\x07Flatten\x1a\x16conv9_2_mbox_conf_perm"\x16conv9_2_mbox_conf_flat\xba\x08\x02\x08\x01\xa2\x06{\n\x15conv9_2_mbox_priorbox\x12\x08PriorBox\x1a\x07conv9_2\x1a\x04data"\x15conv9_2_mbox_priorbox\xda\x0c1\r\x00\x00\x84C\x15\x00\x80\x9dC\x1d\x00\x00\x00@ \x01(\x005\xcd\xcc\xcc=5\xcd\xcc\xcc=5\xcd\xccL>5\xcd\xccL>U\x00\x00\x96Cm\x00\x00\x00?\xa2\x06\xac\x01\n\x08mbox_loc\x12\x06Concat\x1a\x1aconv4_3_norm_mbox_loc_flat\x1a\x11fc7_mbox_loc_flat\x1a\x15conv6_2_mbox_loc_flat\x1a\x15conv7_2_mbox_loc_flat\x1a\x15conv8_2_mbox_loc_flat\x1a\x15conv9_2_mbox_loc_flat"\x08mbox_loc\xc2\x06\x02\x10\x01\xa2\x06\xb4\x01\n\tmbox_conf\x12\x06Concat\x1a\x1bconv4_3_norm_mbox_conf_flat\x1a\x12fc7_mbox_conf_flat\x1a\x16conv6_2_mbox_conf_flat\x1a\x16conv7_2_mbox_conf_flat\x1a\x16conv8_2_mbox_conf_flat\x1a\x16conv9_2_mbox_conf_flat"\tmbox_conf\xc2\x06\x02\x10\x01\xa2\x06\xb6\x01\n\rmbox_priorbox\x12\x06Concat\x1a\x1aconv4_3_norm_mbox_priorbox\x1a\x11fc7_mbox_priorbox\x1a\x15conv6_2_mbox_priorbox\x1a\x15conv7_2_mbox_priorbox\x1a\x15conv8_2_mbox_priorbox\x1a\x15conv9_2_mbox_priorbox"\rmbox_priorbox\xc2\x06\x02\x10\x02\xa2\x06\x8f\x01\n\tmbox_loss\x12\x0cMultiBoxLoss\x1a\x08mbox_loc\x1a\tmbox_conf\x1a\rmbox_priorbox\x1a\x05label"\tmbox_lossB\x02\x08\x00X\x01X\x01X\x00X\x00\xaa\x06\x02\x18\x01\xca\x0c,\x08\x01\x10\x00\x1d\x00\x00\x80? \x15(\x010\x01=\x00\x00\x00?@\x01H\x00P\x01e\x00\x00@@m\x00\x00\x00?p\x02\x90\x01\x00\xa0\x01\x01'
p90
sbsS'use_mean'
p91
Vimage
p92
sS'model_file'
p93
S'original.prototxt'
p94
sS'test_batch_size'
p95
I2
sS'job_dir'
p96
S'/home/wills/Projects/digits-ssd/digits/jobs/20180102-164527-7d39'
p97
sS'receiving_val_output'
p98
I00
sS'timeline_traces'
p99
(lp100
sS'lr_policy'
p101
(dp102
S'policy'
p103
Vstep
p104
sS'stepsize'
p105
F33.0
sS'gamma'
p106
F0.1
ssS'loaded_snapshot_file'
p107
NsS'val_interval'
p108
F1.0
sS'saving_snapshot'
p109
I00
sS'network_text'
p110
S'name: "VGG_VOC0712_SSD_300x300_train"\nlayer {\n  name: "data"\n  type: "AnnotatedData"\n  top: "data"\n  top: "label"\n  include {\n    phase: TRAIN\n  }\n  transform_param {\n    mirror: true\n    mean_value: 104.0\n    mean_value: 117.0\n    mean_value: 123.0\n    resize_param {\n      prob: 1.0\n      resize_mode: WARP\n      height: 300\n      width: 300\n      interp_mode: LINEAR\n      interp_mode: AREA\n      interp_mode: NEAREST\n      interp_mode: CUBIC\n      interp_mode: LANCZOS4\n    }\n    emit_constraint {\n      emit_type: CENTER\n    }\n    distort_param {\n      brightness_prob: 0.5\n      brightness_delta: 32.0\n      contrast_prob: 0.5\n      contrast_lower: 0.5\n      contrast_upper: 1.5\n      hue_prob: 0.5\n      hue_delta: 18.0\n      saturation_prob: 0.5\n      saturation_lower: 0.5\n      saturation_upper: 1.5\n      random_order_prob: 0.0\n    }\n    expand_param {\n      prob: 0.5\n      max_expand_ratio: 4.0\n    }\n  }\n  data_param {\n    source: "/home/wills/Projects/caffe-ssd/examples/VOC0712/VOC0712_trainval_lmdb"\n    batch_size: 32\n    backend: LMDB\n  }\n  annotated_data_param {\n    batch_sampler {\n      max_sample: 1\n      max_trials: 1\n    }\n    batch_sampler {\n      sampler {\n        min_scale: 0.300000011921\n        max_scale: 1.0\n        min_aspect_ratio: 0.5\n        max_aspect_ratio: 2.0\n      }\n      sample_constraint {\n        min_jaccard_overlap: 0.10000000149\n      }\n      max_sample: 1\n      max_trials: 50\n    }\n    batch_sampler {\n      sampler {\n        min_scale: 0.300000011921\n        max_scale: 1.0\n        min_aspect_ratio: 0.5\n        max_aspect_ratio: 2.0\n      }\n      sample_constraint {\n        min_jaccard_overlap: 0.300000011921\n      }\n      max_sample: 1\n      max_trials: 50\n    }\n    batch_sampler {\n      sampler {\n        min_scale: 0.300000011921\n        max_scale: 1.0\n        min_aspect_ratio: 0.5\n        max_aspect_ratio: 2.0\n      }\n      sample_constraint {\n        min_jaccard_overlap: 0.5\n      }\n      max_sample: 1\n      max_trials: 50\n    }\n    batch_sampler {\n      sampler {\n        min_scale: 0.300000011921\n        max_scale: 1.0\n        min_aspect_ratio: 0.5\n        max_aspect_ratio: 2.0\n      }\n      sample_constraint {\n        min_jaccard_overlap: 0.699999988079\n      }\n      max_sample: 1\n      max_trials: 50\n    }\n    batch_sampler {\n      sampler {\n        min_scale: 0.300000011921\n        max_scale: 1.0\n        min_aspect_ratio: 0.5\n        max_aspect_ratio: 2.0\n      }\n      sample_constraint {\n        min_jaccard_overlap: 0.899999976158\n      }\n      max_sample: 1\n      max_trials: 50\n    }\n    batch_sampler {\n      sampler {\n        min_scale: 0.300000011921\n        max_scale: 1.0\n        min_aspect_ratio: 0.5\n        max_aspect_ratio: 2.0\n      }\n      sample_constraint {\n        max_jaccard_overlap: 1.0\n      }\n      max_sample: 1\n      max_trials: 50\n    }\n    label_map_file: "/home/wills/Projects/caffe-ssd/data/VOC0712/labelmap_voc.prototxt"\n  }\n}\nlayer {\n  name: "conv1_1"\n  type: "Convolution"\n  bottom: "data"\n  top: "conv1_1"\n  param {\n    lr_mult: 1.0\n    decay_mult: 1.0\n  }\n  param {\n    lr_mult: 2.0\n    decay_mult: 0.0\n  }\n  convolution_param {\n    num_output: 64\n    pad: 1\n    kernel_size: 3\n    weight_filler {\n      type: "xavier"\n    }\n    bias_filler {\n      type: "constant"\n      value: 0.0\n    }\n  }\n}\nlayer {\n  name: "relu1_1"\n  type: "ReLU"\n  bottom: "conv1_1"\n  top: "conv1_1"\n}\nlayer {\n  name: "conv1_2"\n  type: "Convolution"\n  bottom: "conv1_1"\n  top: "conv1_2"\n  param {\n    lr_mult: 1.0\n    decay_mult: 1.0\n  }\n  param {\n    lr_mult: 2.0\n    decay_mult: 0.0\n  }\n  convolution_param {\n    num_output: 64\n    pad: 1\n    kernel_size: 3\n    weight_filler {\n      type: "xavier"\n    }\n    bias_filler {\n      type: "constant"\n      value: 0.0\n    }\n  }\n}\nlayer {\n  name: "relu1_2"\n  type: "ReLU"\n  bottom: "conv1_2"\n  top: "conv1_2"\n}\nlayer {\n  name: "pool1"\n  type: "Pooling"\n  bottom: "conv1_2"\n  top: "pool1"\n  pooling_param {\n    pool: MAX\n    kernel_size: 2\n    stride: 2\n  }\n}\nlayer {\n  name: "conv2_1"\n  type: "Convolution"\n  bottom: "pool1"\n  top: "conv2_1"\n  param {\n    lr_mult: 1.0\n    decay_mult: 1.0\n  }\n  param {\n    lr_mult: 2.0\n    decay_mult: 0.0\n  }\n  convolution_param {\n    num_output: 128\n    pad: 1\n    kernel_size: 3\n    weight_filler {\n      type: "xavier"\n    }\n    bias_filler {\n      type: "constant"\n      value: 0.0\n    }\n  }\n}\nlayer {\n  name: "relu2_1"\n  type: "ReLU"\n  bottom: "conv2_1"\n  top: "conv2_1"\n}\nlayer {\n  name: "conv2_2"\n  type: "Convolution"\n  bottom: "conv2_1"\n  top: "conv2_2"\n  param {\n    lr_mult: 1.0\n    decay_mult: 1.0\n  }\n  param {\n    lr_mult: 2.0\n    decay_mult: 0.0\n  }\n  convolution_param {\n    num_output: 128\n    pad: 1\n    kernel_size: 3\n    weight_filler {\n      type: "xavier"\n    }\n    bias_filler {\n      type: "constant"\n      value: 0.0\n    }\n  }\n}\nlayer {\n  name: "relu2_2"\n  type: "ReLU"\n  bottom: "conv2_2"\n  top: "conv2_2"\n}\nlayer {\n  name: "pool2"\n  type: "Pooling"\n  bottom: "conv2_2"\n  top: "pool2"\n  pooling_param {\n    pool: MAX\n    kernel_size: 2\n    stride: 2\n  }\n}\nlayer {\n  name: "conv3_1"\n  type: "Convolution"\n  bottom: "pool2"\n  top: "conv3_1"\n  param {\n    lr_mult: 1.0\n    decay_mult: 1.0\n  }\n  param {\n    lr_mult: 2.0\n    decay_mult: 0.0\n  }\n  convolution_param {\n    num_output: 256\n    pad: 1\n    kernel_size: 3\n    weight_filler {\n      type: "xavier"\n    }\n    bias_filler {\n      type: "constant"\n      value: 0.0\n    }\n  }\n}\nlayer {\n  name: "relu3_1"\n  type: "ReLU"\n  bottom: "conv3_1"\n  top: "conv3_1"\n}\nlayer {\n  name: "conv3_2"\n  type: "Convolution"\n  bottom: "conv3_1"\n  top: "conv3_2"\n  param {\n    lr_mult: 1.0\n    decay_mult: 1.0\n  }\n  param {\n    lr_mult: 2.0\n    decay_mult: 0.0\n  }\n  convolution_param {\n    num_output: 256\n    pad: 1\n    kernel_size: 3\n    weight_filler {\n      type: "xavier"\n    }\n    bias_filler {\n      type: "constant"\n      value: 0.0\n    }\n  }\n}\nlayer {\n  name: "relu3_2"\n  type: "ReLU"\n  bottom: "conv3_2"\n  top: "conv3_2"\n}\nlayer {\n  name: "conv3_3"\n  type: "Convolution"\n  bottom: "conv3_2"\n  top: "conv3_3"\n  param {\n    lr_mult: 1.0\n    decay_mult: 1.0\n  }\n  param {\n    lr_mult: 2.0\n    decay_mult: 0.0\n  }\n  convolution_param {\n    num_output: 256\n    pad: 1\n    kernel_size: 3\n    weight_filler {\n      type: "xavier"\n    }\n    bias_filler {\n      type: "constant"\n      value: 0.0\n    }\n  }\n}\nlayer {\n  name: "relu3_3"\n  type: "ReLU"\n  bottom: "conv3_3"\n  top: "conv3_3"\n}\nlayer {\n  name: "pool3"\n  type: "Pooling"\n  bottom: "conv3_3"\n  top: "pool3"\n  pooling_param {\n    pool: MAX\n    kernel_size: 2\n    stride: 2\n  }\n}\nlayer {\n  name: "conv4_1"\n  type: "Convolution"\n  bottom: "pool3"\n  top: "conv4_1"\n  param {\n    lr_mult: 1.0\n    decay_mult: 1.0\n  }\n  param {\n    lr_mult: 2.0\n    decay_mult: 0.0\n  }\n  convolution_param {\n    num_output: 512\n    pad: 1\n    kernel_size: 3\n    weight_filler {\n      type: "xavier"\n    }\n    bias_filler {\n      type: "constant"\n      value: 0.0\n    }\n  }\n}\nlayer {\n  name: "relu4_1"\n  type: "ReLU"\n  bottom: "conv4_1"\n  top: "conv4_1"\n}\nlayer {\n  name: "conv4_2"\n  type: "Convolution"\n  bottom: "conv4_1"\n  top: "conv4_2"\n  param {\n    lr_mult: 1.0\n    decay_mult: 1.0\n  }\n  param {\n    lr_mult: 2.0\n    decay_mult: 0.0\n  }\n  convolution_param {\n    num_output: 512\n    pad: 1\n    kernel_size: 3\n    weight_filler {\n      type: "xavier"\n    }\n    bias_filler {\n      type: "constant"\n      value: 0.0\n    }\n  }\n}\nlayer {\n  name: "relu4_2"\n  type: "ReLU"\n  bottom: "conv4_2"\n  top: "conv4_2"\n}\nlayer {\n  name: "conv4_3"\n  type: "Convolution"\n  bottom: "conv4_2"\n  top: "conv4_3"\n  param {\n    lr_mult: 1.0\n    decay_mult: 1.0\n  }\n  param {\n    lr_mult: 2.0\n    decay_mult: 0.0\n  }\n  convolution_param {\n    num_output: 512\n    pad: 1\n    kernel_size: 3\n    weight_filler {\n      type: "xavier"\n    }\n    bias_filler {\n      type: "constant"\n      value: 0.0\n    }\n  }\n}\nlayer {\n  name: "relu4_3"\n  type: "ReLU"\n  bottom: "conv4_3"\n  top: "conv4_3"\n}\nlayer {\n  name: "pool4"\n  type: "Pooling"\n  bottom: "conv4_3"\n  top: "pool4"\n  pooling_param {\n    pool: MAX\n    kernel_size: 2\n    stride: 2\n  }\n}\nlayer {\n  name: "conv5_1"\n  type: "Convolution"\n  bottom: "pool4"\n  top: "conv5_1"\n  param {\n    lr_mult: 1.0\n    decay_mult: 1.0\n  }\n  param {\n    lr_mult: 2.0\n    decay_mult: 0.0\n  }\n  convolution_param {\n    num_output: 512\n    pad: 1\n    kernel_size: 3\n    weight_filler {\n      type: "xavier"\n    }\n    bias_filler {\n      type: "constant"\n      value: 0.0\n    }\n    dilation: 1\n  }\n}\nlayer {\n  name: "relu5_1"\n  type: "ReLU"\n  bottom: "conv5_1"\n  top: "conv5_1"\n}\nlayer {\n  name: "conv5_2"\n  type: "Convolution"\n  bottom: "conv5_1"\n  top: "conv5_2"\n  param {\n    lr_mult: 1.0\n    decay_mult: 1.0\n  }\n  param {\n    lr_mult: 2.0\n    decay_mult: 0.0\n  }\n  convolution_param {\n    num_output: 512\n    pad: 1\n    kernel_size: 3\n    weight_filler {\n      type: "xavier"\n    }\n    bias_filler {\n      type: "constant"\n      value: 0.0\n    }\n    dilation: 1\n  }\n}\nlayer {\n  name: "relu5_2"\n  type: "ReLU"\n  bottom: "conv5_2"\n  top: "conv5_2"\n}\nlayer {\n  name: "conv5_3"\n  type: "Convolution"\n  bottom: "conv5_2"\n  top: "conv5_3"\n  param {\n    lr_mult: 1.0\n    decay_mult: 1.0\n  }\n  param {\n    lr_mult: 2.0\n    decay_mult: 0.0\n  }\n  convolution_param {\n    num_output: 512\n    pad: 1\n    kernel_size: 3\n    weight_filler {\n      type: "xavier"\n    }\n    bias_filler {\n      type: "constant"\n      value: 0.0\n    }\n    dilation: 1\n  }\n}\nlayer {\n  name: "relu5_3"\n  type: "ReLU"\n  bottom: "conv5_3"\n  top: "conv5_3"\n}\nlayer {\n  name: "pool5"\n  type: "Pooling"\n  bottom: "conv5_3"\n  top: "pool5"\n  pooling_param {\n    pool: MAX\n    kernel_size: 3\n    stride: 1\n    pad: 1\n  }\n}\nlayer {\n  name: "fc6"\n  type: "Convolution"\n  bottom: "pool5"\n  top: "fc6"\n  param {\n    lr_mult: 1.0\n    decay_mult: 1.0\n  }\n  param {\n    lr_mult: 2.0\n    decay_mult: 0.0\n  }\n  convolution_param {\n    num_output: 1024\n    pad: 6\n    kernel_size: 3\n    weight_filler {\n      type: "xavier"\n    }\n    bias_filler {\n      type: "constant"\n      value: 0.0\n    }\n    dilation: 6\n  }\n}\nlayer {\n  name: "relu6"\n  type: "ReLU"\n  bottom: "fc6"\n  top: "fc6"\n}\nlayer {\n  name: "fc7"\n  type: "Convolution"\n  bottom: "fc6"\n  top: "fc7"\n  param {\n    lr_mult: 1.0\n    decay_mult: 1.0\n  }\n  param {\n    lr_mult: 2.0\n    decay_mult: 0.0\n  }\n  convolution_param {\n    num_output: 1024\n    kernel_size: 1\n    weight_filler {\n      type: "xavier"\n    }\n    bias_filler {\n      type: "constant"\n      value: 0.0\n    }\n  }\n}\nlayer {\n  name: "relu7"\n  type: "ReLU"\n  bottom: "fc7"\n  top: "fc7"\n}\nlayer {\n  name: "conv6_1"\n  type: "Convolution"\n  bottom: "fc7"\n  top: "conv6_1"\n  param {\n    lr_mult: 1.0\n    decay_mult: 1.0\n  }\n  param {\n    lr_mult: 2.0\n    decay_mult: 0.0\n  }\n  convolution_param {\n    num_output: 256\n    pad: 0\n    kernel_size: 1\n    stride: 1\n    weight_filler {\n      type: "xavier"\n    }\n    bias_filler {\n      type: "constant"\n      value: 0.0\n    }\n  }\n}\nlayer {\n  name: "conv6_1_relu"\n  type: "ReLU"\n  bottom: "conv6_1"\n  top: "conv6_1"\n}\nlayer {\n  name: "conv6_2"\n  type: "Convolution"\n  bottom: "conv6_1"\n  top: "conv6_2"\n  param {\n    lr_mult: 1.0\n    decay_mult: 1.0\n  }\n  param {\n    lr_mult: 2.0\n    decay_mult: 0.0\n  }\n  convolution_param {\n    num_output: 512\n    pad: 1\n    kernel_size: 3\n    stride: 2\n    weight_filler {\n      type: "xavier"\n    }\n    bias_filler {\n      type: "constant"\n      value: 0.0\n    }\n  }\n}\nlayer {\n  name: "conv6_2_relu"\n  type: "ReLU"\n  bottom: "conv6_2"\n  top: "conv6_2"\n}\nlayer {\n  name: "conv7_1"\n  type: "Convolution"\n  bottom: "conv6_2"\n  top: "conv7_1"\n  param {\n    lr_mult: 1.0\n    decay_mult: 1.0\n  }\n  param {\n    lr_mult: 2.0\n    decay_mult: 0.0\n  }\n  convolution_param {\n    num_output: 128\n    pad: 0\n    kernel_size: 1\n    stride: 1\n    weight_filler {\n      type: "xavier"\n    }\n    bias_filler {\n      type: "constant"\n      value: 0.0\n    }\n  }\n}\nlayer {\n  name: "conv7_1_relu"\n  type: "ReLU"\n  bottom: "conv7_1"\n  top: "conv7_1"\n}\nlayer {\n  name: "conv7_2"\n  type: "Convolution"\n  bottom: "conv7_1"\n  top: "conv7_2"\n  param {\n    lr_mult: 1.0\n    decay_mult: 1.0\n  }\n  param {\n    lr_mult: 2.0\n    decay_mult: 0.0\n  }\n  convolution_param {\n    num_output: 256\n    pad: 1\n    kernel_size: 3\n    stride: 2\n    weight_filler {\n      type: "xavier"\n    }\n    bias_filler {\n      type: "constant"\n      value: 0.0\n    }\n  }\n}\nlayer {\n  name: "conv7_2_relu"\n  type: "ReLU"\n  bottom: "conv7_2"\n  top: "conv7_2"\n}\nlayer {\n  name: "conv8_1"\n  type: "Convolution"\n  bottom: "conv7_2"\n  top: "conv8_1"\n  param {\n    lr_mult: 1.0\n    decay_mult: 1.0\n  }\n  param {\n    lr_mult: 2.0\n    decay_mult: 0.0\n  }\n  convolution_param {\n    num_output: 128\n    pad: 0\n    kernel_size: 1\n    stride: 1\n    weight_filler {\n      type: "xavier"\n    }\n    bias_filler {\n      type: "constant"\n      value: 0.0\n    }\n  }\n}\nlayer {\n  name: "conv8_1_relu"\n  type: "ReLU"\n  bottom: "conv8_1"\n  top: "conv8_1"\n}\nlayer {\n  name: "conv8_2"\n  type: "Convolution"\n  bottom: "conv8_1"\n  top: "conv8_2"\n  param {\n    lr_mult: 1.0\n    decay_mult: 1.0\n  }\n  param {\n    lr_mult: 2.0\n    decay_mult: 0.0\n  }\n  convolution_param {\n    num_output: 256\n    pad: 0\n    kernel_size: 3\n    stride: 1\n    weight_filler {\n      type: "xavier"\n    }\n    bias_filler {\n      type: "constant"\n      value: 0.0\n    }\n  }\n}\nlayer {\n  name: "conv8_2_relu"\n  type: "ReLU"\n  bottom: "conv8_2"\n  top: "conv8_2"\n}\nlayer {\n  name: "conv9_1"\n  type: "Convolution"\n  bottom: "conv8_2"\n  top: "conv9_1"\n  param {\n    lr_mult: 1.0\n    decay_mult: 1.0\n  }\n  param {\n    lr_mult: 2.0\n    decay_mult: 0.0\n  }\n  convolution_param {\n    num_output: 128\n    pad: 0\n    kernel_size: 1\n    stride: 1\n    weight_filler {\n      type: "xavier"\n    }\n    bias_filler {\n      type: "constant"\n      value: 0.0\n    }\n  }\n}\nlayer {\n  name: "conv9_1_relu"\n  type: "ReLU"\n  bottom: "conv9_1"\n  top: "conv9_1"\n}\nlayer {\n  name: "conv9_2"\n  type: "Convolution"\n  bottom: "conv9_1"\n  top: "conv9_2"\n  param {\n    lr_mult: 1.0\n    decay_mult: 1.0\n  }\n  param {\n    lr_mult: 2.0\n    decay_mult: 0.0\n  }\n  convolution_param {\n    num_output: 256\n    pad: 0\n    kernel_size: 3\n    stride: 1\n    weight_filler {\n      type: "xavier"\n    }\n    bias_filler {\n      type: "constant"\n      value: 0.0\n    }\n  }\n}\nlayer {\n  name: "conv9_2_relu"\n  type: "ReLU"\n  bottom: "conv9_2"\n  top: "conv9_2"\n}\nlayer {\n  name: "conv4_3_norm"\n  type: "Normalize"\n  bottom: "conv4_3"\n  top: "conv4_3_norm"\n  norm_param {\n    across_spatial: false\n    scale_filler {\n      type: "constant"\n      value: 20.0\n    }\n    channel_shared: false\n  }\n}\nlayer {\n  name: "conv4_3_norm_mbox_loc"\n  type: "Convolution"\n  bottom: "conv4_3_norm"\n  top: "conv4_3_norm_mbox_loc"\n  param {\n    lr_mult: 1.0\n    decay_mult: 1.0\n  }\n  param {\n    lr_mult: 2.0\n    decay_mult: 0.0\n  }\n  convolution_param {\n    num_output: 16\n    pad: 1\n    kernel_size: 3\n    stride: 1\n    weight_filler {\n      type: "xavier"\n    }\n    bias_filler {\n      type: "constant"\n      value: 0.0\n    }\n  }\n}\nlayer {\n  name: "conv4_3_norm_mbox_loc_perm"\n  type: "Permute"\n  bottom: "conv4_3_norm_mbox_loc"\n  top: "conv4_3_norm_mbox_loc_perm"\n  permute_param {\n    order: 0\n    order: 2\n    order: 3\n    order: 1\n  }\n}\nlayer {\n  name: "conv4_3_norm_mbox_loc_flat"\n  type: "Flatten"\n  bottom: "conv4_3_norm_mbox_loc_perm"\n  top: "conv4_3_norm_mbox_loc_flat"\n  flatten_param {\n    axis: 1\n  }\n}\nlayer {\n  name: "conv4_3_norm_mbox_conf"\n  type: "Convolution"\n  bottom: "conv4_3_norm"\n  top: "conv4_3_norm_mbox_conf"\n  param {\n    lr_mult: 1.0\n    decay_mult: 1.0\n  }\n  param {\n    lr_mult: 2.0\n    decay_mult: 0.0\n  }\n  convolution_param {\n    num_output: 84\n    pad: 1\n    kernel_size: 3\n    stride: 1\n    weight_filler {\n      type: "xavier"\n    }\n    bias_filler {\n      type: "constant"\n      value: 0.0\n    }\n  }\n}\nlayer {\n  name: "conv4_3_norm_mbox_conf_perm"\n  type: "Permute"\n  bottom: "conv4_3_norm_mbox_conf"\n  top: "conv4_3_norm_mbox_conf_perm"\n  permute_param {\n    order: 0\n    order: 2\n    order: 3\n    order: 1\n  }\n}\nlayer {\n  name: "conv4_3_norm_mbox_conf_flat"\n  type: "Flatten"\n  bottom: "conv4_3_norm_mbox_conf_perm"\n  top: "conv4_3_norm_mbox_conf_flat"\n  flatten_param {\n    axis: 1\n  }\n}\nlayer {\n  name: "conv4_3_norm_mbox_priorbox"\n  type: "PriorBox"\n  bottom: "conv4_3_norm"\n  bottom: "data"\n  top: "conv4_3_norm_mbox_priorbox"\n  prior_box_param {\n    min_size: 30.0\n    max_size: 60.0\n    aspect_ratio: 2.0\n    flip: true\n    clip: false\n    variance: 0.10000000149\n    variance: 0.10000000149\n    variance: 0.20000000298\n    variance: 0.20000000298\n    step: 8.0\n    offset: 0.5\n  }\n}\nlayer {\n  name: "fc7_mbox_loc"\n  type: "Convolution"\n  bottom: "fc7"\n  top: "fc7_mbox_loc"\n  param {\n    lr_mult: 1.0\n    decay_mult: 1.0\n  }\n  param {\n    lr_mult: 2.0\n    decay_mult: 0.0\n  }\n  convolution_param {\n    num_output: 24\n    pad: 1\n    kernel_size: 3\n    stride: 1\n    weight_filler {\n      type: "xavier"\n    }\n    bias_filler {\n      type: "constant"\n      value: 0.0\n    }\n  }\n}\nlayer {\n  name: "fc7_mbox_loc_perm"\n  type: "Permute"\n  bottom: "fc7_mbox_loc"\n  top: "fc7_mbox_loc_perm"\n  permute_param {\n    order: 0\n    order: 2\n    order: 3\n    order: 1\n  }\n}\nlayer {\n  name: "fc7_mbox_loc_flat"\n  type: "Flatten"\n  bottom: "fc7_mbox_loc_perm"\n  top: "fc7_mbox_loc_flat"\n  flatten_param {\n    axis: 1\n  }\n}\nlayer {\n  name: "fc7_mbox_conf"\n  type: "Convolution"\n  bottom: "fc7"\n  top: "fc7_mbox_conf"\n  param {\n    lr_mult: 1.0\n    decay_mult: 1.0\n  }\n  param {\n    lr_mult: 2.0\n    decay_mult: 0.0\n  }\n  convolution_param {\n    num_output: 126\n    pad: 1\n    kernel_size: 3\n    stride: 1\n    weight_filler {\n      type: "xavier"\n    }\n    bias_filler {\n      type: "constant"\n      value: 0.0\n    }\n  }\n}\nlayer {\n  name: "fc7_mbox_conf_perm"\n  type: "Permute"\n  bottom: "fc7_mbox_conf"\n  top: "fc7_mbox_conf_perm"\n  permute_param {\n    order: 0\n    order: 2\n    order: 3\n    order: 1\n  }\n}\nlayer {\n  name: "fc7_mbox_conf_flat"\n  type: "Flatten"\n  bottom: "fc7_mbox_conf_perm"\n  top: "fc7_mbox_conf_flat"\n  flatten_param {\n    axis: 1\n  }\n}\nlayer {\n  name: "fc7_mbox_priorbox"\n  type: "PriorBox"\n  bottom: "fc7"\n  bottom: "data"\n  top: "fc7_mbox_priorbox"\n  prior_box_param {\n    min_size: 60.0\n    max_size: 111.0\n    aspect_ratio: 2.0\n    aspect_ratio: 3.0\n    flip: true\n    clip: false\n    variance: 0.10000000149\n    variance: 0.10000000149\n    variance: 0.20000000298\n    variance: 0.20000000298\n    step: 16.0\n    offset: 0.5\n  }\n}\nlayer {\n  name: "conv6_2_mbox_loc"\n  type: "Convolution"\n  bottom: "conv6_2"\n  top: "conv6_2_mbox_loc"\n  param {\n    lr_mult: 1.0\n    decay_mult: 1.0\n  }\n  param {\n    lr_mult: 2.0\n    decay_mult: 0.0\n  }\n  convolution_param {\n    num_output: 24\n    pad: 1\n    kernel_size: 3\n    stride: 1\n    weight_filler {\n      type: "xavier"\n    }\n    bias_filler {\n      type: "constant"\n      value: 0.0\n    }\n  }\n}\nlayer {\n  name: "conv6_2_mbox_loc_perm"\n  type: "Permute"\n  bottom: "conv6_2_mbox_loc"\n  top: "conv6_2_mbox_loc_perm"\n  permute_param {\n    order: 0\n    order: 2\n    order: 3\n    order: 1\n  }\n}\nlayer {\n  name: "conv6_2_mbox_loc_flat"\n  type: "Flatten"\n  bottom: "conv6_2_mbox_loc_perm"\n  top: "conv6_2_mbox_loc_flat"\n  flatten_param {\n    axis: 1\n  }\n}\nlayer {\n  name: "conv6_2_mbox_conf"\n  type: "Convolution"\n  bottom: "conv6_2"\n  top: "conv6_2_mbox_conf"\n  param {\n    lr_mult: 1.0\n    decay_mult: 1.0\n  }\n  param {\n    lr_mult: 2.0\n    decay_mult: 0.0\n  }\n  convolution_param {\n    num_output: 126\n    pad: 1\n    kernel_size: 3\n    stride: 1\n    weight_filler {\n      type: "xavier"\n    }\n    bias_filler {\n      type: "constant"\n      value: 0.0\n    }\n  }\n}\nlayer {\n  name: "conv6_2_mbox_conf_perm"\n  type: "Permute"\n  bottom: "conv6_2_mbox_conf"\n  top: "conv6_2_mbox_conf_perm"\n  permute_param {\n    order: 0\n    order: 2\n    order: 3\n    order: 1\n  }\n}\nlayer {\n  name: "conv6_2_mbox_conf_flat"\n  type: "Flatten"\n  bottom: "conv6_2_mbox_conf_perm"\n  top: "conv6_2_mbox_conf_flat"\n  flatten_param {\n    axis: 1\n  }\n}\nlayer {\n  name: "conv6_2_mbox_priorbox"\n  type: "PriorBox"\n  bottom: "conv6_2"\n  bottom: "data"\n  top: "conv6_2_mbox_priorbox"\n  prior_box_param {\n    min_size: 111.0\n    max_size: 162.0\n    aspect_ratio: 2.0\n    aspect_ratio: 3.0\n    flip: true\n    clip: false\n    variance: 0.10000000149\n    variance: 0.10000000149\n    variance: 0.20000000298\n    variance: 0.20000000298\n    step: 32.0\n    offset: 0.5\n  }\n}\nlayer {\n  name: "conv7_2_mbox_loc"\n  type: "Convolution"\n  bottom: "conv7_2"\n  top: "conv7_2_mbox_loc"\n  param {\n    lr_mult: 1.0\n    decay_mult: 1.0\n  }\n  param {\n    lr_mult: 2.0\n    decay_mult: 0.0\n  }\n  convolution_param {\n    num_output: 24\n    pad: 1\n    kernel_size: 3\n    stride: 1\n    weight_filler {\n      type: "xavier"\n    }\n    bias_filler {\n      type: "constant"\n      value: 0.0\n    }\n  }\n}\nlayer {\n  name: "conv7_2_mbox_loc_perm"\n  type: "Permute"\n  bottom: "conv7_2_mbox_loc"\n  top: "conv7_2_mbox_loc_perm"\n  permute_param {\n    order: 0\n    order: 2\n    order: 3\n    order: 1\n  }\n}\nlayer {\n  name: "conv7_2_mbox_loc_flat"\n  type: "Flatten"\n  bottom: "conv7_2_mbox_loc_perm"\n  top: "conv7_2_mbox_loc_flat"\n  flatten_param {\n    axis: 1\n  }\n}\nlayer {\n  name: "conv7_2_mbox_conf"\n  type: "Convolution"\n  bottom: "conv7_2"\n  top: "conv7_2_mbox_conf"\n  param {\n    lr_mult: 1.0\n    decay_mult: 1.0\n  }\n  param {\n    lr_mult: 2.0\n    decay_mult: 0.0\n  }\n  convolution_param {\n    num_output: 126\n    pad: 1\n    kernel_size: 3\n    stride: 1\n    weight_filler {\n      type: "xavier"\n    }\n    bias_filler {\n      type: "constant"\n      value: 0.0\n    }\n  }\n}\nlayer {\n  name: "conv7_2_mbox_conf_perm"\n  type: "Permute"\n  bottom: "conv7_2_mbox_conf"\n  top: "conv7_2_mbox_conf_perm"\n  permute_param {\n    order: 0\n    order: 2\n    order: 3\n    order: 1\n  }\n}\nlayer {\n  name: "conv7_2_mbox_conf_flat"\n  type: "Flatten"\n  bottom: "conv7_2_mbox_conf_perm"\n  top: "conv7_2_mbox_conf_flat"\n  flatten_param {\n    axis: 1\n  }\n}\nlayer {\n  name: "conv7_2_mbox_priorbox"\n  type: "PriorBox"\n  bottom: "conv7_2"\n  bottom: "data"\n  top: "conv7_2_mbox_priorbox"\n  prior_box_param {\n    min_size: 162.0\n    max_size: 213.0\n    aspect_ratio: 2.0\n    aspect_ratio: 3.0\n    flip: true\n    clip: false\n    variance: 0.10000000149\n    variance: 0.10000000149\n    variance: 0.20000000298\n    variance: 0.20000000298\n    step: 64.0\n    offset: 0.5\n  }\n}\nlayer {\n  name: "conv8_2_mbox_loc"\n  type: "Convolution"\n  bottom: "conv8_2"\n  top: "conv8_2_mbox_loc"\n  param {\n    lr_mult: 1.0\n    decay_mult: 1.0\n  }\n  param {\n    lr_mult: 2.0\n    decay_mult: 0.0\n  }\n  convolution_param {\n    num_output: 16\n    pad: 1\n    kernel_size: 3\n    stride: 1\n    weight_filler {\n      type: "xavier"\n    }\n    bias_filler {\n      type: "constant"\n      value: 0.0\n    }\n  }\n}\nlayer {\n  name: "conv8_2_mbox_loc_perm"\n  type: "Permute"\n  bottom: "conv8_2_mbox_loc"\n  top: "conv8_2_mbox_loc_perm"\n  permute_param {\n    order: 0\n    order: 2\n    order: 3\n    order: 1\n  }\n}\nlayer {\n  name: "conv8_2_mbox_loc_flat"\n  type: "Flatten"\n  bottom: "conv8_2_mbox_loc_perm"\n  top: "conv8_2_mbox_loc_flat"\n  flatten_param {\n    axis: 1\n  }\n}\nlayer {\n  name: "conv8_2_mbox_conf"\n  type: "Convolution"\n  bottom: "conv8_2"\n  top: "conv8_2_mbox_conf"\n  param {\n    lr_mult: 1.0\n    decay_mult: 1.0\n  }\n  param {\n    lr_mult: 2.0\n    decay_mult: 0.0\n  }\n  convolution_param {\n    num_output: 84\n    pad: 1\n    kernel_size: 3\n    stride: 1\n    weight_filler {\n      type: "xavier"\n    }\n    bias_filler {\n      type: "constant"\n      value: 0.0\n    }\n  }\n}\nlayer {\n  name: "conv8_2_mbox_conf_perm"\n  type: "Permute"\n  bottom: "conv8_2_mbox_conf"\n  top: "conv8_2_mbox_conf_perm"\n  permute_param {\n    order: 0\n    order: 2\n    order: 3\n    order: 1\n  }\n}\nlayer {\n  name: "conv8_2_mbox_conf_flat"\n  type: "Flatten"\n  bottom: "conv8_2_mbox_conf_perm"\n  top: "conv8_2_mbox_conf_flat"\n  flatten_param {\n    axis: 1\n  }\n}\nlayer {\n  name: "conv8_2_mbox_priorbox"\n  type: "PriorBox"\n  bottom: "conv8_2"\n  bottom: "data"\n  top: "conv8_2_mbox_priorbox"\n  prior_box_param {\n    min_size: 213.0\n    max_size: 264.0\n    aspect_ratio: 2.0\n    flip: true\n    clip: false\n    variance: 0.10000000149\n    variance: 0.10000000149\n    variance: 0.20000000298\n    variance: 0.20000000298\n    step: 100.0\n    offset: 0.5\n  }\n}\nlayer {\n  name: "conv9_2_mbox_loc"\n  type: "Convolution"\n  bottom: "conv9_2"\n  top: "conv9_2_mbox_loc"\n  param {\n    lr_mult: 1.0\n    decay_mult: 1.0\n  }\n  param {\n    lr_mult: 2.0\n    decay_mult: 0.0\n  }\n  convolution_param {\n    num_output: 16\n    pad: 1\n    kernel_size: 3\n    stride: 1\n    weight_filler {\n      type: "xavier"\n    }\n    bias_filler {\n      type: "constant"\n      value: 0.0\n    }\n  }\n}\nlayer {\n  name: "conv9_2_mbox_loc_perm"\n  type: "Permute"\n  bottom: "conv9_2_mbox_loc"\n  top: "conv9_2_mbox_loc_perm"\n  permute_param {\n    order: 0\n    order: 2\n    order: 3\n    order: 1\n  }\n}\nlayer {\n  name: "conv9_2_mbox_loc_flat"\n  type: "Flatten"\n  bottom: "conv9_2_mbox_loc_perm"\n  top: "conv9_2_mbox_loc_flat"\n  flatten_param {\n    axis: 1\n  }\n}\nlayer {\n  name: "conv9_2_mbox_conf"\n  type: "Convolution"\n  bottom: "conv9_2"\n  top: "conv9_2_mbox_conf"\n  param {\n    lr_mult: 1.0\n    decay_mult: 1.0\n  }\n  param {\n    lr_mult: 2.0\n    decay_mult: 0.0\n  }\n  convolution_param {\n    num_output: 84\n    pad: 1\n    kernel_size: 3\n    stride: 1\n    weight_filler {\n      type: "xavier"\n    }\n    bias_filler {\n      type: "constant"\n      value: 0.0\n    }\n  }\n}\nlayer {\n  name: "conv9_2_mbox_conf_perm"\n  type: "Permute"\n  bottom: "conv9_2_mbox_conf"\n  top: "conv9_2_mbox_conf_perm"\n  permute_param {\n    order: 0\n    order: 2\n    order: 3\n    order: 1\n  }\n}\nlayer {\n  name: "conv9_2_mbox_conf_flat"\n  type: "Flatten"\n  bottom: "conv9_2_mbox_conf_perm"\n  top: "conv9_2_mbox_conf_flat"\n  flatten_param {\n    axis: 1\n  }\n}\nlayer {\n  name: "conv9_2_mbox_priorbox"\n  type: "PriorBox"\n  bottom: "conv9_2"\n  bottom: "data"\n  top: "conv9_2_mbox_priorbox"\n  prior_box_param {\n    min_size: 264.0\n    max_size: 315.0\n    aspect_ratio: 2.0\n    flip: true\n    clip: false\n    variance: 0.10000000149\n    variance: 0.10000000149\n    variance: 0.20000000298\n    variance: 0.20000000298\n    step: 300.0\n    offset: 0.5\n  }\n}\nlayer {\n  name: "mbox_loc"\n  type: "Concat"\n  bottom: "conv4_3_norm_mbox_loc_flat"\n  bottom: "fc7_mbox_loc_flat"\n  bottom: "conv6_2_mbox_loc_flat"\n  bottom: "conv7_2_mbox_loc_flat"\n  bottom: "conv8_2_mbox_loc_flat"\n  bottom: "conv9_2_mbox_loc_flat"\n  top: "mbox_loc"\n  concat_param {\n    axis: 1\n  }\n}\nlayer {\n  name: "mbox_conf"\n  type: "Concat"\n  bottom: "conv4_3_norm_mbox_conf_flat"\n  bottom: "fc7_mbox_conf_flat"\n  bottom: "conv6_2_mbox_conf_flat"\n  bottom: "conv7_2_mbox_conf_flat"\n  bottom: "conv8_2_mbox_conf_flat"\n  bottom: "conv9_2_mbox_conf_flat"\n  top: "mbox_conf"\n  concat_param {\n    axis: 1\n  }\n}\nlayer {\n  name: "mbox_priorbox"\n  type: "Concat"\n  bottom: "conv4_3_norm_mbox_priorbox"\n  bottom: "fc7_mbox_priorbox"\n  bottom: "conv6_2_mbox_priorbox"\n  bottom: "conv7_2_mbox_priorbox"\n  bottom: "conv8_2_mbox_priorbox"\n  bottom: "conv9_2_mbox_priorbox"\n  top: "mbox_priorbox"\n  concat_param {\n    axis: 2\n  }\n}\nlayer {\n  name: "mbox_loss"\n  type: "MultiBoxLoss"\n  bottom: "mbox_loc"\n  bottom: "mbox_conf"\n  bottom: "mbox_priorbox"\n  bottom: "label"\n  top: "mbox_loss"\n  include {\n    phase: TRAIN\n  }\n  propagate_down: true\n  propagate_down: true\n  propagate_down: false\n  propagate_down: false\n  loss_param {\n    normalization: VALID\n  }\n  multibox_loss_param {\n    loc_loss_type: SMOOTH_L1\n    conf_loss_type: SOFTMAX\n    loc_weight: 1.0\n    num_classes: 21\n    share_location: true\n    match_type: PER_PREDICTION\n    overlap_threshold: 0.5\n    use_prior_for_matching: true\n    background_label_id: 0\n    use_difficult_gt: true\n    neg_pos_ratio: 3.0\n    neg_overlap: 0.5\n    code_type: CENTER_SIZE\n    ignore_cross_boundary_bbox: false\n    mining_type: MAX_NEGATIVE\n  }\n}\n\n'
p111
sS'pickver_task_caffe_train'
p112
I5
sS'learning_rate'
p113
F0.01
sS'digits_version'
p114
S'6.0.0-rc.1'
p115
sS'batch_size'
p116
I2
sS'job'
p117
g4
sS'pickver_task_train'
p118
I2
sS'pickver_task'
p119
I1
sS'data_aug'
p120
(dp121
S'scale'
p122
F0.0
sS'hsv_use'
p123
I00
sS'flip'
p124
Vnone
p125
sS'quad_rot'
p126
Vnone
p127
sS'noise'
p128
F0.0
sS'whitening'
p129
I00
sS'hsv_h'
p130
F0.02
sS'hsv_s'
p131
F0.04
sS'rot'
p132
I0
sS'hsv_v'
p133
F0.06
sS'contrast'
p134
F0.0
ssS'snapshot_prefix'
p135
S'snapshot'
p136
sS'traceback'
p137
NsS'status_history'
p138
(lp139
((idigits.status
Status
p140
S'I'
p142
bF1514940327.961714
tp143
a((idigits.status
Status
p144
S'R'
p145
bF1514940329.193386
tp146
a((idigits.status
Status
p147
S'D'
p148
bF1514940398.328196
tp149
asS'image_mean'
p150
NsS'batch_accumulation'
p151
I2
sS'log_file'
p152
S'caffe_output.log'
p153
sS'network_type'
p154
Vface
p155
sS'solver_type'
p156
VSGD
p157
sbasS'pickver_job_model_image_generic'
p158
I1
sS'pickver_job'
p159
I2
sS'dataset_id'
p160
S'20180102-164446-b896'
p161
sS'_name'
p162
Vw
p163
sS'pickver_job_model_image'
p164
I1
sg58
NsS'group'
p165
Vw
p166
sS'persistent'
p167
I01
sS'form_data'
p168
(dp169
S'form.standard_networks.data'
p170
g155
sS'form.learning_rate.data'
p171
(lp172
F0.01
asS'form.aug_flip.data'
p173
g125
sS'form.select_gpus.data'
p174
(lp175
sS'form.framework.data'
p176
Vcaffe
p177
sS'form.dataset.data'
p178
V20180102-164446-b896
p179
sS'form.python_layer_from_client.data'
p180
I00
sS'form.lr_multistep_values.data'
p181
V50,85
p182
sS'form.aug_hsv_s.data'
p183
F0.04
sS'form.train_server_ip.data'
p184
g57
sS'form.lr_policy.data'
p185
g104
sS'form.previous_networks.data'
p186
VNone
p187
sS'form.lr_sigmoid_gamma.data'
p188
F0.1
sS'form.aug_quad_rot.data'
p189
g127
sS'form.rms_decay.data'
p190
F0.99
sS'form.method.data'
p191
Vstandard
p192
sS'form.lr_sigmoid_step.data'
p193
F50.0
sS'form.crop_size.data'
p194
NsS'form.select_gpu_count.data'
p195
I1
sS'form.python_layer_server_file.data'
p196
V
p197
sS'form.test_batch_size.data'
p198
(lp199
I2
asS'form.custom_network.data'
p200
g197
sS'form.aug_hsv_v.data'
p201
F0.06
sS'form.train_server_port.data'
p202
g50
sS'form.aug_noise.data'
p203
F0.0
sS'form.select_gpus_list.data'
p204
g197
sS'form.traces_interval.data'
p205
I0
sS'form.shuffle.data'
p206
I01
sS'form.aug_scale.data'
p207
F0.0
sS'form.batch_accumulation.data'
p208
I2
sS'form.batch_size.data'
p209
(lp210
I2
asS'form.max_iter_num.data'
p211
I500
sS'form.lr_inv_power.data'
p212
F0.5
sS'form.group_name.data'
p213
g166
sS'form.lr_step_gamma.data'
p214
F0.1
sS'form.use_mean.data'
p215
g92
sS'form.lr_inv_gamma.data'
p216
F0.1
sS'form.aug_contrast.data'
p217
F0.0
sS'form.snapshot_interval.data'
p218
F1.0
sS'form.select_gpu.data'
p219
Vnext
p220
sS'form.lr_step_size.data'
p221
F33.0
sS'form.aug_hsv_use.data'
p222
I00
sS'form.aug_whitening.data'
p223
I00
sS'form.pretrained_networks.data'
p224
VNone
p225
sS'form.custom_network_snapshot.data'
p226
g197
sS'form.random_seed.data'
p227
NsS'form.lr_multistep_gamma.data'
p228
F0.5
sS'form.model_name.data'
p229
g163
sS'form.lr_exp_gamma.data'
p230
F0.95
sS'form.val_interval.data'
p231
F1.0
sS'form.aug_rot.data'
p232
I0
sS'form.solver_type.data'
p233
g157
sS'form.train_epochs.data'
p234
I500
sS'form.lr_poly_power.data'
p235
F3.0
sS'form.aug_hsv_h.data'
p236
F0.02
ssg54
F1.0
sS'_id'
p237
S'20180102-164527-7d39'
p238
sS'pickver_job_dataset'
p239
I1
sg138
(lp240
((idigits.status
Status
p241
g142
bF1514940327.716503
tp242
a((idigits.status
Status
p243
g145
bF1514940328.989904
tp244
a((idigits.status
Status
p245
g148
bF1514940398.415384
tp246
asb.