ccopy_reg
_reconstructor
p0
(cdigits.dataset.generic.job
GenericDatasetJob
p1
c__builtin__
object
p2
Ntp3
Rp4
(dp5
S'_notes'
p6
NsS'username'
p7
Vwills
p8
sS'tasks'
p9
(lp10
g0
(cdigits.dataset.tasks.create_generic_db
CreateGenericDbTask
p11
g2
Ntp12
Rp13
(dp14
S'feature_shape'
p15
NsS'pickver_task_create_generic_db'
p16
I1
sS'label_shape'
p17
NsS'job'
p18
g4
sS'entry_count'
p19
I0
sS'create_db_log_file'
p20
S'create_train_db_db.log'
p21
sS'dbs'
p22
(dp23
S'labels'
p24
NsS'features'
p25
NssS'pickver_task'
p26
I1
sS'stage'
p27
S'train_db'
p28
sS'exception'
p29
NsS'current_resources'
p30
NsS'job_id'
p31
S'20180108-223220-4081'
p32
sS'traceback'
p33
NsS'mean_file'
p34
NsS'job_dir'
p35
S'/home/wills/Projects/digits-ssd/digits/jobs/20180108-223220-4081'
p36
sS'parents'
p37
NsS'progress'
p38
F1.0
sS'backend'
p39
Vlmdb
p40
sS'status_history'
p41
(lp42
((idigits.status
Status
p43
S'I'
p45
bF1515479540.252143
tp46
a((idigits.status
Status
p47
S'R'
p48
bF1515479541.793666
tp49
a((idigits.status
Status
p50
S'D'
p51
bF1515479543.404882
tp52
asbasS'pickver_job_dataset_extension'
p53
I1
sS'batch_size'
p54
I32
sS'force_same_shape'
p55
I1
sS'form_data'
p56
(dp57
S'form.dsopts_num_threads.data'
p58
I4
sS'form.dsopts_force_same_shape.data'
p59
I1
sS'form.voc_folder.data'
p60
V/home/wills/data/VOCdevkit
p61
sS'form.dsopts_batch_size.data'
p62
I32
sS'form.dataset_server_port.data'
p63
V
p64
sS'form.dsopts_backend.data'
p65
g40
sS'form.group_name.data'
p66
Vobject_detection
p67
sS'form.dsopts_label_encoding.data'
p68
Vnone
p69
sS'form.dsopts_feature_encoding.data'
p70
Vpng
p71
sS'form.dataset_server_ip.data'
p72
g64
sS'form.dataset_name.data'
p73
Vssd_lmdb
p74
ssS'pickver_job'
p75
I2
sg39
g40
sS'num_threads'
p76
I4
sg29
NsS'group'
p77
g67
sS'feature_encoding'
p78
g71
sS'persistent'
p79
I01
sS'_name'
p80
g74
sS'extension_userdata'
p81
(dp82
S'voc_folder'
p83
g61
sS'is_inference_db'
p84
I00
sS'dataset_server_port'
p85
g64
sS'class_labels'
p86
(lp87
S'background'
p88
aS'left ventricle'
p89
asS'dataset_server_ip'
p90
g64
ssS'extension_id'
p91
Vssd_pascal
p92
sS'label_encoding'
p93
g69
sg38
F1.0
sS'_id'
p94
S'20180108-223220-4081'
p95
sS'pickver_job_dataset'
p96
I1
sg41
(lp97
((idigits.status
Status
p98
g45
bF1515479540.251611
tp99
a((idigits.status
Status
p100
g48
bF1515479541.603914
tp101
a((idigits.status
Status
p102
g51
bF1515479543.575774
tp103
asb.