ccopy_reg
_reconstructor
p0
(cdigits.dataset.generic.job
GenericDatasetJob
p1
c__builtin__
object
p2
Ntp3
Rp4
(dp5
S'_notes'
p6
NsS'username'
p7
Vwills
p8
sS'tasks'
p9
(lp10
g0
(cdigits.dataset.tasks.create_generic_db
CreateGenericDbTask
p11
g2
Ntp12
Rp13
(dp14
S'feature_shape'
p15
NsS'pickver_task_create_generic_db'
p16
I1
sS'label_shape'
p17
NsS'job'
p18
g4
sS'entry_count'
p19
I0
sS'create_db_log_file'
p20
S'create_train_db_db.log'
p21
sS'dbs'
p22
(dp23
S'labels'
p24
NsS'features'
p25
NssS'pickver_task'
p26
I1
sS'backend'
p27
Vlmdb
p28
sS'exception'
p29
VOSError:
p30
sS'current_resources'
p31
NsS'job_id'
p32
S'20180108-222948-8821'
p33
sS'traceback'
p34
NsS'mean_file'
p35
NsS'job_dir'
p36
S'/home/wills/Projects/digits-ssd/digits/jobs/20180108-222948-8821'
p37
sS'parents'
p38
NsS'progress'
p39
I0
sS'stage'
p40
S'train_db'
p41
sS'status_history'
p42
(lp43
((idigits.status
Status
p44
S'I'
p46
bF1515479388.145829
tp47
a((idigits.status
Status
p48
S'R'
p49
bF1515479389.440098
tp50
a((idigits.status
Status
p51
S'E'
p52
bF1515479391.214451
tp53
asbasS'pickver_job_dataset_extension'
p54
I1
sS'batch_size'
p55
I32
sS'force_same_shape'
p56
I1
sS'form_data'
p57
(dp58
S'form.dsopts_num_threads.data'
p59
I4
sS'form.dsopts_force_same_shape.data'
p60
I1
sS'form.dsopts_batch_size.data'
p61
I32
sS'form.dataset_server_port.data'
p62
V
p63
sS'form.dsopts_backend.data'
p64
g28
sS'form.dataset_server_ip.data'
p65
g63
sS'form.group_name.data'
p66
Vobject_detection
p67
sS'form.dsopts_label_encoding.data'
p68
Vnone
p69
sS'form.dsopts_feature_encoding.data'
p70
Vpng
p71
sS'form.voc_folder.data'
p72
V/home/wills/data/VOCdevkit
p73
sS'form.dataset_name.data'
p74
Vssd_lmdb
p75
ssS'pickver_job'
p76
I2
sg27
g28
sS'num_threads'
p77
I4
sg29
NsS'group'
p78
g67
sS'feature_encoding'
p79
g71
sS'persistent'
p80
I01
sS'_name'
p81
g75
sS'extension_userdata'
p82
(dp83
S'voc_folder'
p84
g73
sS'is_inference_db'
p85
I00
sS'dataset_server_port'
p86
g63
sS'class_labels'
p87
(lp88
S'background'
p89
aS'left ventricle'
p90
asS'dataset_server_ip'
p91
g63
ssS'extension_id'
p92
Vssd_pascal
p93
sS'label_encoding'
p94
g69
sg39
I0
sS'_id'
p95
S'20180108-222948-8821'
p96
sS'pickver_job_dataset'
p97
I1
sg42
(lp98
((idigits.status
Status
p99
g46
bF1515479388.145501
tp100
a((idigits.status
Status
p101
g49
bF1515479389.254501
tp102
a((idigits.status
Status
p103
g52
bF1515479391.318743
tp104
asb.