ccopy_reg
_reconstructor
p0
(cdigits.dataset.generic.job
GenericDatasetJob
p1
c__builtin__
object
p2
Ntp3
Rp4
(dp5
S'_notes'
p6
NsS'username'
p7
Vwills
p8
sS'tasks'
p9
(lp10
g0
(cdigits.dataset.tasks.create_generic_db
CreateGenericDbTask
p11
g2
Ntp12
Rp13
(dp14
S'feature_shape'
p15
NsS'pickver_task_create_generic_db'
p16
I1
sS'label_shape'
p17
NsS'job'
p18
g4
sS'entry_count'
p19
I0
sS'create_db_log_file'
p20
S'create_train_db_db.log'
p21
sS'dbs'
p22
(dp23
S'labels'
p24
NsS'features'
p25
NssS'pickver_task'
p26
I1
sS'backend'
p27
Vlmdb
p28
sS'exception'
p29
NsS'current_resources'
p30
NsS'job_id'
p31
S'20180102-164446-b896'
p32
sS'traceback'
p33
NsS'mean_file'
p34
NsS'job_dir'
p35
S'/home/wills/Projects/digits-ssd/digits/jobs/20180102-164446-b896'
p36
sS'parents'
p37
NsS'progress'
p38
F1.0
sS'stage'
p39
S'train_db'
p40
sS'status_history'
p41
(lp42
((idigits.status
Status
p43
S'I'
p45
bF1514940286.296185
tp46
a((idigits.status
Status
p47
S'R'
p48
bF1514940287.663006
tp49
a((idigits.status
Status
p50
S'D'
p51
bF1514940289.30072
tp52
asbasS'pickver_job_dataset_extension'
p53
I1
sS'batch_size'
p54
I32
sS'force_same_shape'
p55
I1
sS'form_data'
p56
(dp57
S'form.dsopts_num_threads.data'
p58
I4
sS'form.dsopts_force_same_shape.data'
p59
I1
sS'form.dsopts_batch_size.data'
p60
I32
sS'form.dsopts_backend.data'
p61
g28
sS'form.group_name.data'
p62
Vt
p63
sS'form.dsopts_label_encoding.data'
p64
Vnone
p65
sS'form.dsopts_feature_encoding.data'
p66
Vpng
p67
sS'form.voc_folder.data'
p68
Vaaa
p69
sS'form.dataset_name.data'
p70
Vtest_lmdb
p71
ssS'pickver_job'
p72
I2
sg27
g28
sS'num_threads'
p73
I4
sg29
NsS'group'
p74
g63
sS'feature_encoding'
p75
g67
sS'persistent'
p76
I01
sS'_name'
p77
g71
sS'extension_userdata'
p78
(dp79
S'voc_folder'
p80
g69
sS'is_inference_db'
p81
I00
sS'class_labels'
p82
(lp83
S'background'
p84
aS'left ventricle'
p85
assS'extension_id'
p86
Vssd_pascal
p87
sS'label_encoding'
p88
g65
sg38
F1.0
sS'_id'
p89
S'20180102-164446-b896'
p90
sS'pickver_job_dataset'
p91
I1
sg41
(lp92
((idigits.status
Status
p93
g45
bF1514940286.28492
tp94
a((idigits.status
Status
p95
g48
bF1514940287.375902
tp96
a((idigits.status
Status
p97
g51
bF1514940289.619544
tp98
asb.